---
triple:          'arm64-apple-darwin'
binary-path:     '/Users/library-cp/library-cp/verify/static2dsum.test'
relocations:
  - { offsetInCU: 0xD3, offset: 0xD3, size: 0x8, addend: 0x0, symName: __ZSt23__is_constant_evaluatedv, symObjAddr: 0x0, symBinAddr: 0x100004D0C, symSize: 0x8 }
  - { offsetInCU: 0xDB, offset: 0xDB, size: 0x8, addend: 0x0, symName: __ZNSt8__detail11__synth3wayE, symObjAddr: 0xB23C, symBinAddr: 0x1000116DC, symSize: 0x0 }
  - { offsetInCU: 0x38A8F, offset: 0x38A8F, size: 0x8, addend: 0x0, symName: __ZStL8__ioinit, symObjAddr: 0x128AF0, symBinAddr: 0x10001D108, symSize: 0x0 }
  - { offsetInCU: 0x3A165, offset: 0x3A165, size: 0x8, addend: 0x0, symName: __GLOBAL__sub_I_static2dsum.test.cpp, symObjAddr: 0xB228, symBinAddr: 0x10000FF34, symSize: 0x14 }
  - { offsetInCU: 0x3A16D, offset: 0x3A16D, size: 0x8, addend: 0x0, symName: __ZNSt8__detail11__synth3wayE, symObjAddr: 0xB23C, symBinAddr: 0x1000116DC, symSize: 0x0 }
  - { offsetInCU: 0x3A184, offset: 0x3A184, size: 0x8, addend: 0x0, symName: __Z41__static_initialization_and_destruction_0v, symObjAddr: 0xB1EC, symBinAddr: 0x10000FEF8, symSize: 0x3C }
  - { offsetInCU: 0x3A18C, offset: 0x3A18C, size: 0x8, addend: 0x0, symName: __GLOBAL__sub_I_static2dsum.test.cpp, symObjAddr: 0xB228, symBinAddr: 0x10000FF34, symSize: 0x14 }
  - { offsetInCU: 0x3A227, offset: 0x3A227, size: 0x8, addend: 0x0, symName: __ZNSt12_Vector_baseIiSaIiEE17_Vector_impl_dataC2EOS2_, symObjAddr: 0xB17C, symBinAddr: 0x10000FE88, symSize: 0x70 }
  - { offsetInCU: 0x3A22F, offset: 0x3A22F, size: 0x8, addend: 0x0, symName: __Z41__static_initialization_and_destruction_0v, symObjAddr: 0xB1EC, symBinAddr: 0x10000FEF8, symSize: 0x3C }
  - { offsetInCU: 0x3A252, offset: 0x3A252, size: 0x8, addend: 0x0, symName: __ZSt4moveIRNSt12_Vector_baseIiSaIiEE12_Vector_implEEONSt16remove_referenceIT_E4typeEOS6_, symObjAddr: 0xB168, symBinAddr: 0x10000FE74, symSize: 0x14 }
  - { offsetInCU: 0x3A25A, offset: 0x3A25A, size: 0x8, addend: 0x0, symName: __ZNSt12_Vector_baseIiSaIiEE17_Vector_impl_dataC2EOS2_, symObjAddr: 0xB17C, symBinAddr: 0x10000FE88, symSize: 0x70 }
  - { offsetInCU: 0x3A2E2, offset: 0x3A2E2, size: 0x8, addend: 0x0, symName: __ZNSt12_Vector_baseIxSaIxEE17_Vector_impl_dataC2EOS2_, symObjAddr: 0xB0F8, symBinAddr: 0x10000FE04, symSize: 0x70 }
  - { offsetInCU: 0x3A2EA, offset: 0x3A2EA, size: 0x8, addend: 0x0, symName: __ZSt4moveIRNSt12_Vector_baseIiSaIiEE12_Vector_implEEONSt16remove_referenceIT_E4typeEOS6_, symObjAddr: 0xB168, symBinAddr: 0x10000FE74, symSize: 0x14 }
  - { offsetInCU: 0x3A30D, offset: 0x3A30D, size: 0x8, addend: 0x0, symName: __ZSt4moveIRNSt12_Vector_baseIxSaIxEE12_Vector_implEEONSt16remove_referenceIT_E4typeEOS6_, symObjAddr: 0xB0E4, symBinAddr: 0x10000FDF0, symSize: 0x14 }
  - { offsetInCU: 0x3A315, offset: 0x3A315, size: 0x8, addend: 0x0, symName: __ZNSt12_Vector_baseIxSaIxEE17_Vector_impl_dataC2EOS2_, symObjAddr: 0xB0F8, symBinAddr: 0x10000FE04, symSize: 0x70 }
  - { offsetInCU: 0x3A3A9, offset: 0x3A3A9, size: 0x8, addend: 0x0, symName: __ZNSt12_Vector_baseISt4pairIxxESaIS1_EE17_Vector_impl_dataC2EOS4_, symObjAddr: 0xB074, symBinAddr: 0x10000FD80, symSize: 0x70 }
  - { offsetInCU: 0x3A3B1, offset: 0x3A3B1, size: 0x8, addend: 0x0, symName: __ZSt4moveIRNSt12_Vector_baseIxSaIxEE12_Vector_implEEONSt16remove_referenceIT_E4typeEOS6_, symObjAddr: 0xB0E4, symBinAddr: 0x10000FDF0, symSize: 0x14 }
  - { offsetInCU: 0x3A3C8, offset: 0x3A3C8, size: 0x8, addend: 0x0, symName: __ZSt4moveIRNSt12_Vector_baseISt4pairIxxESaIS2_EE12_Vector_implEEONSt16remove_referenceIT_E4typeEOS8_, symObjAddr: 0xB060, symBinAddr: 0x10000FD6C, symSize: 0x14 }
  - { offsetInCU: 0x3A3D0, offset: 0x3A3D0, size: 0x8, addend: 0x0, symName: __ZNSt12_Vector_baseISt4pairIxxESaIS1_EE17_Vector_impl_dataC2EOS4_, symObjAddr: 0xB074, symBinAddr: 0x10000FD80, symSize: 0x70 }
  - { offsetInCU: 0x3A409, offset: 0x3A409, size: 0x8, addend: 0x0, symName: __ZNK9__gnu_cxx5__ops14_Iter_less_valclINS_17__normal_iteratorIPxSt6vectorIxSaIxEEEExEEbT_RT0_, symObjAddr: 0xB024, symBinAddr: 0x10000FD30, symSize: 0x3C }
  - { offsetInCU: 0x3A411, offset: 0x3A411, size: 0x8, addend: 0x0, symName: __ZSt4moveIRNSt12_Vector_baseISt4pairIxxESaIS2_EE12_Vector_implEEONSt16remove_referenceIT_E4typeEOS8_, symObjAddr: 0xB060, symBinAddr: 0x10000FD6C, symSize: 0x14 }
  - { offsetInCU: 0x3A462, offset: 0x3A462, size: 0x8, addend: 0x0, symName: __ZSt12construct_atIiJiEEDTgsnwcvPvLi0E_T_pispcl7declvalIT0_EEEEPS1_DpOS2_, symObjAddr: 0xAFDC, symBinAddr: 0x10000FCE8, symSize: 0x48 }
  - { offsetInCU: 0x3A46A, offset: 0x3A46A, size: 0x8, addend: 0x0, symName: __ZNK9__gnu_cxx5__ops14_Iter_less_valclINS_17__normal_iteratorIPxSt6vectorIxSaIxEEEExEEbT_RT0_, symObjAddr: 0xB024, symBinAddr: 0x10000FD30, symSize: 0x3C }
  - { offsetInCU: 0x3A4AE, offset: 0x3A4AE, size: 0x8, addend: 0x0, symName: __ZSt9__fill_a1IPiiEN9__gnu_cxx11__enable_ifIXsrSt11__is_scalarIT0_E7__valueEvE6__typeET_S8_RKS4_, symObjAddr: 0xAF84, symBinAddr: 0x10000FC90, symSize: 0x58 }
  - { offsetInCU: 0x3A4B6, offset: 0x3A4B6, size: 0x8, addend: 0x0, symName: __ZSt12construct_atIiJiEEDTgsnwcvPvLi0E_T_pispcl7declvalIT0_EEEEPS1_DpOS2_, symObjAddr: 0xAFDC, symBinAddr: 0x10000FCE8, symSize: 0x48 }
  - { offsetInCU: 0x3A51D, offset: 0x3A51D, size: 0x8, addend: 0x0, symName: __ZNSt20__copy_move_backwardILb1ELb0ESt26random_access_iterator_tagE13__copy_move_bIPSt4pairIxxES5_EET0_T_S7_S6_, symObjAddr: 0xAF08, symBinAddr: 0x10000FC14, symSize: 0x7C }
  - { offsetInCU: 0x3A525, offset: 0x3A525, size: 0x8, addend: 0x0, symName: __ZSt9__fill_a1IPiiEN9__gnu_cxx11__enable_ifIXsrSt11__is_scalarIT0_E7__valueEvE6__typeET_S8_RKS4_, symObjAddr: 0xAF84, symBinAddr: 0x10000FC90, symSize: 0x58 }
  - { offsetInCU: 0x3A590, offset: 0x3A590, size: 0x8, addend: 0x0, symName: __ZNK9__gnu_cxx5__ops14_Iter_less_valclINS_17__normal_iteratorIPSt4pairIxxESt6vectorIS5_SaIS5_EEEES5_EEbT_RT0_, symObjAddr: 0xAEB4, symBinAddr: 0x10000FBC0, symSize: 0x54 }
  - { offsetInCU: 0x3A598, offset: 0x3A598, size: 0x8, addend: 0x0, symName: __ZNSt20__copy_move_backwardILb1ELb0ESt26random_access_iterator_tagE13__copy_move_bIPSt4pairIxxES5_EET0_T_S7_S6_, symObjAddr: 0xAF08, symBinAddr: 0x10000FC14, symSize: 0x7C }
  - { offsetInCU: 0x3A642, offset: 0x3A642, size: 0x8, addend: 0x0, symName: __ZNSt12_Vector_baseIiSaIiEE12_Vector_implC1EOS2_, symObjAddr: 0xAE48, symBinAddr: 0x10000FB54, symSize: 0x6C }
  - { offsetInCU: 0x3A64A, offset: 0x3A64A, size: 0x8, addend: 0x0, symName: __ZNK9__gnu_cxx5__ops14_Iter_less_valclINS_17__normal_iteratorIPSt4pairIxxESt6vectorIS5_SaIS5_EEEES5_EEbT_RT0_, symObjAddr: 0xAEB4, symBinAddr: 0x10000FBC0, symSize: 0x54 }
  - { offsetInCU: 0x3A708, offset: 0x3A708, size: 0x8, addend: 0x0, symName: __ZNSt12_Vector_baseIxSaIxEE12_Vector_implC1EOS2_, symObjAddr: 0xADDC, symBinAddr: 0x10000FAE8, symSize: 0x6C }
  - { offsetInCU: 0x3A710, offset: 0x3A710, size: 0x8, addend: 0x0, symName: __ZNSt12_Vector_baseIiSaIiEE12_Vector_implC1EOS2_, symObjAddr: 0xAE48, symBinAddr: 0x10000FB54, symSize: 0x6C }
  - { offsetInCU: 0x3A7C3, offset: 0x3A7C3, size: 0x8, addend: 0x0, symName: __ZNSt12_Vector_baseISt4pairIxxESaIS1_EE12_Vector_implC1EOS4_, symObjAddr: 0xAD70, symBinAddr: 0x10000FA7C, symSize: 0x6C }
  - { offsetInCU: 0x3A7CB, offset: 0x3A7CB, size: 0x8, addend: 0x0, symName: __ZNSt12_Vector_baseIxSaIxEE12_Vector_implC1EOS2_, symObjAddr: 0xADDC, symBinAddr: 0x10000FAE8, symSize: 0x6C }
  - { offsetInCU: 0x3A82B, offset: 0x3A82B, size: 0x8, addend: 0x0, symName: __ZSt11__push_heapIN9__gnu_cxx17__normal_iteratorIPxSt6vectorIxSaIxEEEElxNS0_5__ops14_Iter_less_valEEvT_T0_SA_T1_RT2_, symObjAddr: 0xAC48, symBinAddr: 0x10000F954, symSize: 0x128 }
  - { offsetInCU: 0x3A833, offset: 0x3A833, size: 0x8, addend: 0x0, symName: __ZNSt12_Vector_baseISt4pairIxxESaIS1_EE12_Vector_implC1EOS4_, symObjAddr: 0xAD70, symBinAddr: 0x10000FA7C, symSize: 0x6C }
  - { offsetInCU: 0x3A90D, offset: 0x3A90D, size: 0x8, addend: 0x0, symName: __ZNSt11__copy_moveILb1ELb0ESt26random_access_iterator_tagE12__assign_oneIxxEEvPT_PT0_, symObjAddr: 0xAC18, symBinAddr: 0x10000F924, symSize: 0x30 }
  - { offsetInCU: 0x3A915, offset: 0x3A915, size: 0x8, addend: 0x0, symName: __ZSt11__push_heapIN9__gnu_cxx17__normal_iteratorIPxSt6vectorIxSaIxEEEElxNS0_5__ops14_Iter_less_valEEvT_T0_SA_T1_RT2_, symObjAddr: 0xAC48, symBinAddr: 0x10000F954, symSize: 0x128 }
  - { offsetInCU: 0x3A95A, offset: 0x3A95A, size: 0x8, addend: 0x0, symName: __ZSt13__copy_move_aILb1EPxS0_ET1_T0_S2_S1_, symObjAddr: 0xABB8, symBinAddr: 0x10000F8C4, symSize: 0x60 }
  - { offsetInCU: 0x3A962, offset: 0x3A962, size: 0x8, addend: 0x0, symName: __ZNSt11__copy_moveILb1ELb0ESt26random_access_iterator_tagE12__assign_oneIxxEEvPT_PT0_, symObjAddr: 0xAC18, symBinAddr: 0x10000F924, symSize: 0x30 }
  - { offsetInCU: 0x3A9C2, offset: 0x3A9C2, size: 0x8, addend: 0x0, symName: __ZSt12__miter_baseIPxEDTcl12__miter_basecldtfp_4baseEEESt13move_iteratorIT_E, symObjAddr: 0xAB94, symBinAddr: 0x10000F8A0, symSize: 0x24 }
  - { offsetInCU: 0x3A9CA, offset: 0x3A9CA, size: 0x8, addend: 0x0, symName: __ZSt13__copy_move_aILb1EPxS0_ET1_T0_S2_S1_, symObjAddr: 0xABB8, symBinAddr: 0x10000F8C4, symSize: 0x60 }
  - { offsetInCU: 0x3AA6D, offset: 0x3AA6D, size: 0x8, addend: 0x0, symName: __ZSt4moveIRiEONSt16remove_referenceIT_E4typeEOS2_, symObjAddr: 0xAB80, symBinAddr: 0x10000F88C, symSize: 0x14 }
  - { offsetInCU: 0x3AA75, offset: 0x3AA75, size: 0x8, addend: 0x0, symName: __ZSt12__miter_baseIPxEDTcl12__miter_basecldtfp_4baseEEESt13move_iteratorIT_E, symObjAddr: 0xAB94, symBinAddr: 0x10000F8A0, symSize: 0x24 }
  - { offsetInCU: 0x3AA9F, offset: 0x3AA9F, size: 0x8, addend: 0x0, symName: __ZSt8__fill_aIPiiEvT_S1_RKT0_, symObjAddr: 0xAB50, symBinAddr: 0x10000F85C, symSize: 0x30 }
  - { offsetInCU: 0x3AAA7, offset: 0x3AAA7, size: 0x8, addend: 0x0, symName: __ZSt4moveIRiEONSt16remove_referenceIT_E4typeEOS2_, symObjAddr: 0xAB80, symBinAddr: 0x10000F88C, symSize: 0x14 }
  - { offsetInCU: 0x3AAFD, offset: 0x3AAFD, size: 0x8, addend: 0x0, symName: __ZSt23__copy_move_backward_a2ILb1EPSt4pairIxxES2_ET1_T0_S4_S3_, symObjAddr: 0xAAF8, symBinAddr: 0x10000F804, symSize: 0x58 }
  - { offsetInCU: 0x3AB05, offset: 0x3AB05, size: 0x8, addend: 0x0, symName: __ZSt8__fill_aIPiiEvT_S1_RKT0_, symObjAddr: 0xAB50, symBinAddr: 0x10000F85C, symSize: 0x30 }
  - { offsetInCU: 0x3AB69, offset: 0x3AB69, size: 0x8, addend: 0x0, symName: __ZNSt4pairIxxE4swapERS0_, symObjAddr: 0xAAB4, symBinAddr: 0x10000F7C0, symSize: 0x44 }
  - { offsetInCU: 0x3AB71, offset: 0x3AB71, size: 0x8, addend: 0x0, symName: __ZSt23__copy_move_backward_a2ILb1EPSt4pairIxxES2_ET1_T0_S4_S3_, symObjAddr: 0xAAF8, symBinAddr: 0x10000F804, symSize: 0x58 }
  - { offsetInCU: 0x3ABA0, offset: 0x3ABA0, size: 0x8, addend: 0x0, symName: __ZSt11__push_heapIN9__gnu_cxx17__normal_iteratorIPSt4pairIxxESt6vectorIS3_SaIS3_EEEElS3_NS0_5__ops14_Iter_less_valEEvT_T0_SC_T1_RT2_, symObjAddr: 0xA984, symBinAddr: 0x10000F690, symSize: 0x130 }
  - { offsetInCU: 0x3ABA8, offset: 0x3ABA8, size: 0x8, addend: 0x0, symName: __ZNSt4pairIxxE4swapERS0_, symObjAddr: 0xAAB4, symBinAddr: 0x10000F7C0, symSize: 0x44 }
  - { offsetInCU: 0x3AC3F, offset: 0x3AC3F, size: 0x8, addend: 0x0, symName: __ZSt12construct_atISt4pairIxxEJS1_EEDTgsnwcvPvLi0E_T_pispcl7declvalIT0_EEEEPS3_DpOS4_, symObjAddr: 0xA93C, symBinAddr: 0x10000F648, symSize: 0x48 }
  - { offsetInCU: 0x3AC47, offset: 0x3AC47, size: 0x8, addend: 0x0, symName: __ZSt11__push_heapIN9__gnu_cxx17__normal_iteratorIPSt4pairIxxESt6vectorIS3_SaIS3_EEEElS3_NS0_5__ops14_Iter_less_valEEvT_T0_SC_T1_RT2_, symObjAddr: 0xA984, symBinAddr: 0x10000F690, symSize: 0x130 }
  - { offsetInCU: 0x3AC92, offset: 0x3AC92, size: 0x8, addend: 0x0, symName: __ZSt7forwardISt4pairIxxEEOT_RNSt16remove_referenceIS2_E4typeE, symObjAddr: 0xA928, symBinAddr: 0x10000F634, symSize: 0x14 }
  - { offsetInCU: 0x3AC9A, offset: 0x3AC9A, size: 0x8, addend: 0x0, symName: __ZSt12construct_atISt4pairIxxEJS1_EEDTgsnwcvPvLi0E_T_pispcl7declvalIT0_EEEEPS3_DpOS4_, symObjAddr: 0xA93C, symBinAddr: 0x10000F648, symSize: 0x48 }
  - { offsetInCU: 0x3ACC4, offset: 0x3ACC4, size: 0x8, addend: 0x0, symName: __ZSt12construct_atISt6vectorIiSaIiEEJS2_EEDTgsnwcvPvLi0E_T_pispcl7declvalIT0_EEEEPS4_DpOS5_, symObjAddr: 0xA8DC, symBinAddr: 0x10000F5E8, symSize: 0x4C }
  - { offsetInCU: 0x3ACCC, offset: 0x3ACCC, size: 0x8, addend: 0x0, symName: __ZSt7forwardISt4pairIxxEEOT_RNSt16remove_referenceIS2_E4typeE, symObjAddr: 0xA928, symBinAddr: 0x10000F634, symSize: 0x14 }
  - { offsetInCU: 0x3AD4C, offset: 0x3AD4C, size: 0x8, addend: 0x0, symName: __ZNSt6vectorIiSaIiEEC1EOS1_, symObjAddr: 0xA8B4, symBinAddr: 0x10000F5C0, symSize: 0x28 }
  - { offsetInCU: 0x3AD54, offset: 0x3AD54, size: 0x8, addend: 0x0, symName: __ZSt12construct_atISt6vectorIiSaIiEEJS2_EEDTgsnwcvPvLi0E_T_pispcl7declvalIT0_EEEEPS4_DpOS5_, symObjAddr: 0xA8DC, symBinAddr: 0x10000F5E8, symSize: 0x4C }
  - { offsetInCU: 0x3ADA2, offset: 0x3ADA2, size: 0x8, addend: 0x0, symName: __ZNSt12_Vector_baseIiSaIiEEC2EOS1_, symObjAddr: 0xA88C, symBinAddr: 0x10000F598, symSize: 0x28 }
  - { offsetInCU: 0x3ADAA, offset: 0x3ADAA, size: 0x8, addend: 0x0, symName: __ZNSt6vectorIiSaIiEEC1EOS1_, symObjAddr: 0xA8B4, symBinAddr: 0x10000F5C0, symSize: 0x28 }
  - { offsetInCU: 0x3ADB5, offset: 0x3ADB5, size: 0x8, addend: 0x0, symName: __ZSt7forwardISt6vectorIiSaIiEEEOT_RNSt16remove_referenceIS3_E4typeE, symObjAddr: 0xA878, symBinAddr: 0x10000F584, symSize: 0x14 }
  - { offsetInCU: 0x3ADBD, offset: 0x3ADBD, size: 0x8, addend: 0x0, symName: __ZNSt12_Vector_baseIiSaIiEEC2EOS1_, symObjAddr: 0xA88C, symBinAddr: 0x10000F598, symSize: 0x28 }
  - { offsetInCU: 0x3AE35, offset: 0x3AE35, size: 0x8, addend: 0x0, symName: __ZNSt12_Vector_baseIiSaIiEE17_Vector_impl_dataC2Ev, symObjAddr: 0xA84C, symBinAddr: 0x10000F558, symSize: 0x2C }
  - { offsetInCU: 0x3AE3D, offset: 0x3AE3D, size: 0x8, addend: 0x0, symName: __ZSt7forwardISt6vectorIiSaIiEEEOT_RNSt16remove_referenceIS3_E4typeE, symObjAddr: 0xA878, symBinAddr: 0x10000F584, symSize: 0x14 }
  - { offsetInCU: 0x3AE3F, offset: 0x3AE3F, size: 0x8, addend: 0x0, symName: __ZSt12construct_atISt6vectorIxSaIxEEJS2_EEDTgsnwcvPvLi0E_T_pispcl7declvalIT0_EEEEPS4_DpOS5_, symObjAddr: 0xA800, symBinAddr: 0x10000F50C, symSize: 0x4C }
  - { offsetInCU: 0x3AE47, offset: 0x3AE47, size: 0x8, addend: 0x0, symName: __ZNSt12_Vector_baseIiSaIiEE17_Vector_impl_dataC2Ev, symObjAddr: 0xA84C, symBinAddr: 0x10000F558, symSize: 0x2C }
  - { offsetInCU: 0x3AEC7, offset: 0x3AEC7, size: 0x8, addend: 0x0, symName: __ZNSt6vectorIxSaIxEEC1EOS1_, symObjAddr: 0xA7D8, symBinAddr: 0x10000F4E4, symSize: 0x28 }
  - { offsetInCU: 0x3AECF, offset: 0x3AECF, size: 0x8, addend: 0x0, symName: __ZSt12construct_atISt6vectorIxSaIxEEJS2_EEDTgsnwcvPvLi0E_T_pispcl7declvalIT0_EEEEPS4_DpOS5_, symObjAddr: 0xA800, symBinAddr: 0x10000F50C, symSize: 0x4C }
  - { offsetInCU: 0x3AF1D, offset: 0x3AF1D, size: 0x8, addend: 0x0, symName: __ZNSt12_Vector_baseIxSaIxEEC2EOS1_, symObjAddr: 0xA7B0, symBinAddr: 0x10000F4BC, symSize: 0x28 }
  - { offsetInCU: 0x3AF25, offset: 0x3AF25, size: 0x8, addend: 0x0, symName: __ZNSt6vectorIxSaIxEEC1EOS1_, symObjAddr: 0xA7D8, symBinAddr: 0x10000F4E4, symSize: 0x28 }
  - { offsetInCU: 0x3AF30, offset: 0x3AF30, size: 0x8, addend: 0x0, symName: __ZSt7forwardISt6vectorIxSaIxEEEOT_RNSt16remove_referenceIS3_E4typeE, symObjAddr: 0xA79C, symBinAddr: 0x10000F4A8, symSize: 0x14 }
  - { offsetInCU: 0x3AF38, offset: 0x3AF38, size: 0x8, addend: 0x0, symName: __ZNSt12_Vector_baseIxSaIxEEC2EOS1_, symObjAddr: 0xA7B0, symBinAddr: 0x10000F4BC, symSize: 0x28 }
  - { offsetInCU: 0x3AF62, offset: 0x3AF62, size: 0x8, addend: 0x0, symName: __ZSt12construct_atISt6vectorISt4pairIxxESaIS2_EEJS4_EEDTgsnwcvPvLi0E_T_pispcl7declvalIT0_EEEEPS6_DpOS7_, symObjAddr: 0xA750, symBinAddr: 0x10000F45C, symSize: 0x4C }
  - { offsetInCU: 0x3AF6A, offset: 0x3AF6A, size: 0x8, addend: 0x0, symName: __ZSt7forwardISt6vectorIxSaIxEEEOT_RNSt16remove_referenceIS3_E4typeE, symObjAddr: 0xA79C, symBinAddr: 0x10000F4A8, symSize: 0x14 }
  - { offsetInCU: 0x3AFF6, offset: 0x3AFF6, size: 0x8, addend: 0x0, symName: __ZNSt6vectorISt4pairIxxESaIS1_EEC1EOS3_, symObjAddr: 0xA728, symBinAddr: 0x10000F434, symSize: 0x28 }
  - { offsetInCU: 0x3AFFE, offset: 0x3AFFE, size: 0x8, addend: 0x0, symName: __ZSt12construct_atISt6vectorISt4pairIxxESaIS2_EEJS4_EEDTgsnwcvPvLi0E_T_pispcl7declvalIT0_EEEEPS6_DpOS7_, symObjAddr: 0xA750, symBinAddr: 0x10000F45C, symSize: 0x4C }
  - { offsetInCU: 0x3B04C, offset: 0x3B04C, size: 0x8, addend: 0x0, symName: __ZNSt12_Vector_baseISt4pairIxxESaIS1_EEC2EOS3_, symObjAddr: 0xA700, symBinAddr: 0x10000F40C, symSize: 0x28 }
  - { offsetInCU: 0x3B054, offset: 0x3B054, size: 0x8, addend: 0x0, symName: __ZNSt6vectorISt4pairIxxESaIS1_EEC1EOS3_, symObjAddr: 0xA728, symBinAddr: 0x10000F434, symSize: 0x28 }
  - { offsetInCU: 0x3B053, offset: 0x3B053, size: 0x8, addend: 0x0, symName: __ZSt7forwardISt6vectorISt4pairIxxESaIS2_EEEOT_RNSt16remove_referenceIS5_E4typeE, symObjAddr: 0xA6EC, symBinAddr: 0x10000F3F8, symSize: 0x14 }
  - { offsetInCU: 0x3B05B, offset: 0x3B05B, size: 0x8, addend: 0x0, symName: __ZNSt12_Vector_baseISt4pairIxxESaIS1_EEC2EOS3_, symObjAddr: 0xA700, symBinAddr: 0x10000F40C, symSize: 0x28 }
  - { offsetInCU: 0x3B0DF, offset: 0x3B0DF, size: 0x8, addend: 0x0, symName: __ZNSt12_Vector_baseISt4pairIxxESaIS1_EE17_Vector_impl_dataC2Ev, symObjAddr: 0xA6C0, symBinAddr: 0x10000F3CC, symSize: 0x2C }
  - { offsetInCU: 0x3B0E7, offset: 0x3B0E7, size: 0x8, addend: 0x0, symName: __ZSt7forwardISt6vectorISt4pairIxxESaIS2_EEEOT_RNSt16remove_referenceIS5_E4typeE, symObjAddr: 0xA6EC, symBinAddr: 0x10000F3F8, symSize: 0x14 }
  - { offsetInCU: 0x3B0DD, offset: 0x3B0DD, size: 0x8, addend: 0x0, symName: __ZNSt11__copy_moveILb1ELb1ESt26random_access_iterator_tagE8__copy_mIxxEEPT0_PT_S6_S4_, symObjAddr: 0xA630, symBinAddr: 0x10000F33C, symSize: 0x90 }
  - { offsetInCU: 0x3B0E5, offset: 0x3B0E5, size: 0x8, addend: 0x0, symName: __ZNSt12_Vector_baseISt4pairIxxESaIS1_EE17_Vector_impl_dataC2Ev, symObjAddr: 0xA6C0, symBinAddr: 0x10000F3CC, symSize: 0x2C }
  - { offsetInCU: 0x3B14C, offset: 0x3B14C, size: 0x8, addend: 0x0, symName: __ZNSt11__copy_moveILb1ELb0ESt26random_access_iterator_tagE8__copy_mIPxS3_EET0_T_S5_S4_, symObjAddr: 0xA5B4, symBinAddr: 0x10000F2C0, symSize: 0x7C }
  - { offsetInCU: 0x3B154, offset: 0x3B154, size: 0x8, addend: 0x0, symName: __ZNSt11__copy_moveILb1ELb1ESt26random_access_iterator_tagE8__copy_mIxxEEPT0_PT_S6_S4_, symObjAddr: 0xA630, symBinAddr: 0x10000F33C, symSize: 0x90 }
  - { offsetInCU: 0x3B1DB, offset: 0x3B1DB, size: 0x8, addend: 0x0, symName: __ZSt4swapIxENSt9enable_ifIXsrSt6__and_IJSt6__not_ISt15__is_tuple_likeIT_EESt21is_move_constructibleIS4_ESt18is_move_assignableIS4_EEE5valueEvE4typeERS4_SE_, symObjAddr: 0xA560, symBinAddr: 0x10000F26C, symSize: 0x54 }
  - { offsetInCU: 0x3B1E3, offset: 0x3B1E3, size: 0x8, addend: 0x0, symName: __ZNSt11__copy_moveILb1ELb0ESt26random_access_iterator_tagE8__copy_mIPxS3_EET0_T_S5_S4_, symObjAddr: 0xA5B4, symBinAddr: 0x10000F2C0, symSize: 0x7C }
  - { offsetInCU: 0x3B22D, offset: 0x3B22D, size: 0x8, addend: 0x0, symName: __ZSt13__adjust_heapIN9__gnu_cxx17__normal_iteratorIPxSt6vectorIxSaIxEEEElxNS0_5__ops15_Iter_less_iterEEvT_T0_SA_T1_T2_, symObjAddr: 0xA39C, symBinAddr: 0x10000F0A8, symSize: 0x1C4 }
  - { offsetInCU: 0x3B235, offset: 0x3B235, size: 0x8, addend: 0x0, symName: __ZSt4swapIxENSt9enable_ifIXsrSt6__and_IJSt6__not_ISt15__is_tuple_likeIT_EESt21is_move_constructibleIS4_ESt18is_move_assignableIS4_EEE5valueEvE4typeERS4_SE_, symObjAddr: 0xA560, symBinAddr: 0x10000F26C, symSize: 0x54 }
  - { offsetInCU: 0x3B32E, offset: 0x3B32E, size: 0x8, addend: 0x0, symName: __ZNSt6vectorIiSaIiEED1Ev, symObjAddr: 0xA340, symBinAddr: 0x10000F04C, symSize: 0x5C }
  - { offsetInCU: 0x3B336, offset: 0x3B336, size: 0x8, addend: 0x0, symName: __ZSt13__adjust_heapIN9__gnu_cxx17__normal_iteratorIPxSt6vectorIxSaIxEEEElxNS0_5__ops15_Iter_less_iterEEvT_T0_SA_T1_T2_, symObjAddr: 0xA39C, symBinAddr: 0x10000F0A8, symSize: 0x1C4 }
  - { offsetInCU: 0x3B3BC, offset: 0x3B3BC, size: 0x8, addend: 0x0, symName: __ZNSt6vectorISt4pairIxxESaIS1_EED1Ev, symObjAddr: 0xA2E4, symBinAddr: 0x10000EFF0, symSize: 0x5C }
  - { offsetInCU: 0x3B3C4, offset: 0x3B3C4, size: 0x8, addend: 0x0, symName: __ZNSt6vectorIiSaIiEED1Ev, symObjAddr: 0xA340, symBinAddr: 0x10000F04C, symSize: 0x5C }
  - { offsetInCU: 0x3B3F3, offset: 0x3B3F3, size: 0x8, addend: 0x0, symName: __ZSt19__relocate_object_aIxxSaIxEEvPT_PT0_RT1_, symObjAddr: 0xA268, symBinAddr: 0x10000EF74, symSize: 0x7C }
  - { offsetInCU: 0x3B3FB, offset: 0x3B3FB, size: 0x8, addend: 0x0, symName: __ZNSt6vectorISt4pairIxxESaIS1_EED1Ev, symObjAddr: 0xA2E4, symBinAddr: 0x10000EFF0, symSize: 0x5C }
  - { offsetInCU: 0x3B4C2, offset: 0x3B4C2, size: 0x8, addend: 0x0, symName: __ZNK9__gnu_cxx17__normal_iteratorIPxvEdeEv, symObjAddr: 0xA250, symBinAddr: 0x10000EF5C, symSize: 0x18 }
  - { offsetInCU: 0x3B4CA, offset: 0x3B4CA, size: 0x8, addend: 0x0, symName: __ZSt19__relocate_object_aIxxSaIxEEvPT_PT0_RT1_, symObjAddr: 0xA268, symBinAddr: 0x10000EF74, symSize: 0x7C }
  - { offsetInCU: 0x3B4ED, offset: 0x3B4ED, size: 0x8, addend: 0x0, symName: __ZN9__gnu_cxx17__normal_iteratorIPxvEppEv, symObjAddr: 0xA228, symBinAddr: 0x10000EF34, symSize: 0x28 }
  - { offsetInCU: 0x3B4F5, offset: 0x3B4F5, size: 0x8, addend: 0x0, symName: __ZNK9__gnu_cxx17__normal_iteratorIPxvEdeEv, symObjAddr: 0xA250, symBinAddr: 0x10000EF5C, symSize: 0x18 }
  - { offsetInCU: 0x3B52B, offset: 0x3B52B, size: 0x8, addend: 0x0, symName: __ZSt10__fill_n_aIPxmxET_S1_T0_RKT1_St26random_access_iterator_tag, symObjAddr: 0xA1C4, symBinAddr: 0x10000EED0, symSize: 0x64 }
  - { offsetInCU: 0x3B533, offset: 0x3B533, size: 0x8, addend: 0x0, symName: __ZN9__gnu_cxx17__normal_iteratorIPxvEppEv, symObjAddr: 0xA228, symBinAddr: 0x10000EF34, symSize: 0x28 }
  - { offsetInCU: 0x3B5B1, offset: 0x3B5B1, size: 0x8, addend: 0x0, symName: __ZNSt20__copy_move_backwardILb1ELb1ESt26random_access_iterator_tagE13__copy_move_bIxxEEPT0_PT_S6_S4_, symObjAddr: 0xA118, symBinAddr: 0x10000EE24, symSize: 0xAC }
  - { offsetInCU: 0x3B5B9, offset: 0x3B5B9, size: 0x8, addend: 0x0, symName: __ZSt10__fill_n_aIPxmxET_S1_T0_RKT1_St26random_access_iterator_tag, symObjAddr: 0xA1C4, symBinAddr: 0x10000EED0, symSize: 0x64 }
  - { offsetInCU: 0x3B620, offset: 0x3B620, size: 0x8, addend: 0x0, symName: __ZNSt20__copy_move_backwardILb1ELb0ESt26random_access_iterator_tagE13__copy_move_bIPxS3_EET0_T_S5_S4_, symObjAddr: 0xA09C, symBinAddr: 0x10000EDA8, symSize: 0x7C }
  - { offsetInCU: 0x3B628, offset: 0x3B628, size: 0x8, addend: 0x0, symName: __ZNSt20__copy_move_backwardILb1ELb1ESt26random_access_iterator_tagE13__copy_move_bIxxEEPT0_PT_S6_S4_, symObjAddr: 0xA118, symBinAddr: 0x10000EE24, symSize: 0xAC }
  - { offsetInCU: 0x3B68F, offset: 0x3B68F, size: 0x8, addend: 0x0, symName: __ZSt4copyISt13move_iteratorIPxES1_ET0_T_S4_S3_, symObjAddr: 0xA054, symBinAddr: 0x10000ED60, symSize: 0x48 }
  - { offsetInCU: 0x3B697, offset: 0x3B697, size: 0x8, addend: 0x0, symName: __ZNSt20__copy_move_backwardILb1ELb0ESt26random_access_iterator_tagE13__copy_move_bIPxS3_EET0_T_S5_S4_, symObjAddr: 0xA09C, symBinAddr: 0x10000EDA8, symSize: 0x7C }
  - { offsetInCU: 0x3B6ED, offset: 0x3B6ED, size: 0x8, addend: 0x0, symName: __ZSt12construct_atIxJxEEDTgsnwcvPvLi0E_T_pispcl7declvalIT0_EEEEPS1_DpOS2_, symObjAddr: 0xA00C, symBinAddr: 0x10000ED18, symSize: 0x48 }
  - { offsetInCU: 0x3B6F5, offset: 0x3B6F5, size: 0x8, addend: 0x0, symName: __ZSt4copyISt13move_iteratorIPxES1_ET0_T_S4_S3_, symObjAddr: 0xA054, symBinAddr: 0x10000ED60, symSize: 0x48 }
  - { offsetInCU: 0x3B748, offset: 0x3B748, size: 0x8, addend: 0x0, symName: __ZNKSt6ranges12__cust_imove6_IMoveclIRKPxEENS1_8__resultIT_E4typeEOS7_, symObjAddr: 0x9FF0, symBinAddr: 0x10000ECFC, symSize: 0x1C }
  - { offsetInCU: 0x3B750, offset: 0x3B750, size: 0x8, addend: 0x0, symName: __ZSt12construct_atIxJxEEDTgsnwcvPvLi0E_T_pispcl7declvalIT0_EEEEPS1_DpOS2_, symObjAddr: 0xA00C, symBinAddr: 0x10000ED18, symSize: 0x48 }
  - { offsetInCU: 0x3B788, offset: 0x3B788, size: 0x8, addend: 0x0, symName: __ZSt10destroy_atIiEvPT_, symObjAddr: 0x9FDC, symBinAddr: 0x10000ECE8, symSize: 0x14 }
  - { offsetInCU: 0x3B790, offset: 0x3B790, size: 0x8, addend: 0x0, symName: __ZNKSt6ranges12__cust_imove6_IMoveclIRKPxEENS1_8__resultIT_E4typeEOS7_, symObjAddr: 0x9FF0, symBinAddr: 0x10000ECFC, symSize: 0x1C }
  - { offsetInCU: 0x3B7BA, offset: 0x3B7BA, size: 0x8, addend: 0x0, symName: __ZSt19__relocate_object_aIiiSaIiEEvPT_PT0_RT1_, symObjAddr: 0x9F60, symBinAddr: 0x10000EC6C, symSize: 0x7C }
  - { offsetInCU: 0x3B7C2, offset: 0x3B7C2, size: 0x8, addend: 0x0, symName: __ZSt10destroy_atIiEvPT_, symObjAddr: 0x9FDC, symBinAddr: 0x10000ECE8, symSize: 0x14 }
  - { offsetInCU: 0x3B889, offset: 0x3B889, size: 0x8, addend: 0x0, symName: __ZNK9__gnu_cxx17__normal_iteratorIPivEdeEv, symObjAddr: 0x9F48, symBinAddr: 0x10000EC54, symSize: 0x18 }
  - { offsetInCU: 0x3B891, offset: 0x3B891, size: 0x8, addend: 0x0, symName: __ZSt19__relocate_object_aIiiSaIiEEvPT_PT0_RT1_, symObjAddr: 0x9F60, symBinAddr: 0x10000EC6C, symSize: 0x7C }
  - { offsetInCU: 0x3B8B4, offset: 0x3B8B4, size: 0x8, addend: 0x0, symName: __ZN9__gnu_cxx17__normal_iteratorIPivEppEv, symObjAddr: 0x9F20, symBinAddr: 0x10000EC2C, symSize: 0x28 }
  - { offsetInCU: 0x3B8BC, offset: 0x3B8BC, size: 0x8, addend: 0x0, symName: __ZNK9__gnu_cxx17__normal_iteratorIPivEdeEv, symObjAddr: 0x9F48, symBinAddr: 0x10000EC54, symSize: 0x18 }
  - { offsetInCU: 0x3B8F2, offset: 0x3B8F2, size: 0x8, addend: 0x0, symName: __ZSt10__fill_n_aIPimiET_S1_T0_RKT1_St26random_access_iterator_tag, symObjAddr: 0x9EBC, symBinAddr: 0x10000EBC8, symSize: 0x64 }
  - { offsetInCU: 0x3B8FA, offset: 0x3B8FA, size: 0x8, addend: 0x0, symName: __ZN9__gnu_cxx17__normal_iteratorIPivEppEv, symObjAddr: 0x9F20, symBinAddr: 0x10000EC2C, symSize: 0x28 }
  - { offsetInCU: 0x3B978, offset: 0x3B978, size: 0x8, addend: 0x0, symName: __ZSt12construct_atIiJEEDTgsnwcvPvLi0E_T_pispcl7declvalIT0_EEEEPS1_DpOS2_, symObjAddr: 0x9E94, symBinAddr: 0x10000EBA0, symSize: 0x28 }
  - { offsetInCU: 0x3B980, offset: 0x3B980, size: 0x8, addend: 0x0, symName: __ZSt10__fill_n_aIPimiET_S1_T0_RKT1_St26random_access_iterator_tag, symObjAddr: 0x9EBC, symBinAddr: 0x10000EBC8, symSize: 0x64 }
  - { offsetInCU: 0x3B9B4, offset: 0x3B9B4, size: 0x8, addend: 0x0, symName: __ZNSt11__copy_moveILb0ELb0ESt26random_access_iterator_tagE8__copy_mIPSt4pairIxxES5_EET0_T_S7_S6_, symObjAddr: 0x9E20, symBinAddr: 0x10000EB2C, symSize: 0x74 }
  - { offsetInCU: 0x3B9BC, offset: 0x3B9BC, size: 0x8, addend: 0x0, symName: __ZSt12construct_atIiJEEDTgsnwcvPvLi0E_T_pispcl7declvalIT0_EEEEPS1_DpOS2_, symObjAddr: 0x9E94, symBinAddr: 0x10000EBA0, symSize: 0x28 }
  - { offsetInCU: 0x3BA71, offset: 0x3BA71, size: 0x8, addend: 0x0, symName: __ZNSt4pairIxxEC1Ev, symObjAddr: 0x9DFC, symBinAddr: 0x10000EB08, symSize: 0x24 }
  - { offsetInCU: 0x3BA79, offset: 0x3BA79, size: 0x8, addend: 0x0, symName: __ZNSt11__copy_moveILb0ELb0ESt26random_access_iterator_tagE8__copy_mIPSt4pairIxxES5_EET0_T_S7_S6_, symObjAddr: 0x9E20, symBinAddr: 0x10000EB2C, symSize: 0x74 }
  - { offsetInCU: 0x3BA84, offset: 0x3BA84, size: 0x8, addend: 0x0, symName: __ZSt12construct_atISt4pairIxxEJEEDTgsnwcvPvLi0E_T_pispcl7declvalIT0_EEEEPS3_DpOS4_, symObjAddr: 0x9DC0, symBinAddr: 0x10000EACC, symSize: 0x3C }
  - { offsetInCU: 0x3BA8C, offset: 0x3BA8C, size: 0x8, addend: 0x0, symName: __ZNSt4pairIxxEC1Ev, symObjAddr: 0x9DFC, symBinAddr: 0x10000EB08, symSize: 0x24 }
  - { offsetInCU: 0x3BAC0, offset: 0x3BAC0, size: 0x8, addend: 0x0, symName: __ZSt23__copy_move_backward_a1ILb1EPSt4pairIxxES2_ET1_T0_S4_S3_, symObjAddr: 0x9D94, symBinAddr: 0x10000EAA0, symSize: 0x2C }
  - { offsetInCU: 0x3BAC8, offset: 0x3BAC8, size: 0x8, addend: 0x0, symName: __ZSt12construct_atISt4pairIxxEJEEDTgsnwcvPvLi0E_T_pispcl7declvalIT0_EEEEPS3_DpOS4_, symObjAddr: 0x9DC0, symBinAddr: 0x10000EACC, symSize: 0x3C }
  - { offsetInCU: 0x3BB28, offset: 0x3BB28, size: 0x8, addend: 0x0, symName: __ZSt4swapIxxENSt9enable_ifIXsrSt6__and_IJSt14__is_swappableIT_ES2_IT0_EEE5valueEvE4typeERSt4pairIS3_S5_ESC_, symObjAddr: 0x9D6C, symBinAddr: 0x10000EA78, symSize: 0x28 }
  - { offsetInCU: 0x3BB30, offset: 0x3BB30, size: 0x8, addend: 0x0, symName: __ZSt23__copy_move_backward_a1ILb1EPSt4pairIxxES2_ET1_T0_S4_S3_, symObjAddr: 0x9D94, symBinAddr: 0x10000EAA0, symSize: 0x2C }
  - { offsetInCU: 0x3BB75, offset: 0x3BB75, size: 0x8, addend: 0x0, symName: __ZSt13__adjust_heapIN9__gnu_cxx17__normal_iteratorIPSt4pairIxxESt6vectorIS3_SaIS3_EEEElS3_NS0_5__ops15_Iter_less_iterEEvT_T0_SC_T1_T2_, symObjAddr: 0x9BA4, symBinAddr: 0x10000E8B0, symSize: 0x1C8 }
  - { offsetInCU: 0x3BB7D, offset: 0x3BB7D, size: 0x8, addend: 0x0, symName: __ZSt4swapIxxENSt9enable_ifIXsrSt6__and_IJSt14__is_swappableIT_ES2_IT0_EEE5valueEvE4typeERSt4pairIS3_S5_ESC_, symObjAddr: 0x9D6C, symBinAddr: 0x10000EA78, symSize: 0x28 }
  - { offsetInCU: 0x3BD0A, offset: 0x3BD0A, size: 0x8, addend: 0x0, symName: __ZSt4moveIRSt6vectorIiSaIiEEEONSt16remove_referenceIT_E4typeEOS5_, symObjAddr: 0x9B90, symBinAddr: 0x10000E89C, symSize: 0x14 }
  - { offsetInCU: 0x3BD12, offset: 0x3BD12, size: 0x8, addend: 0x0, symName: __ZSt13__adjust_heapIN9__gnu_cxx17__normal_iteratorIPSt4pairIxxESt6vectorIS3_SaIS3_EEEElS3_NS0_5__ops15_Iter_less_iterEEvT_T0_SC_T1_T2_, symObjAddr: 0x9BA4, symBinAddr: 0x10000E8B0, symSize: 0x1C8 }
  - { offsetInCU: 0x3BD99, offset: 0x3BD99, size: 0x8, addend: 0x0, symName: __ZNSt12_Vector_baseIiSaIiEED2Ev, symObjAddr: 0x9B40, symBinAddr: 0x10000E84C, symSize: 0x50 }
  - { offsetInCU: 0x3BDA1, offset: 0x3BDA1, size: 0x8, addend: 0x0, symName: __ZSt4moveIRSt6vectorIiSaIiEEEONSt16remove_referenceIT_E4typeEOS5_, symObjAddr: 0x9B90, symBinAddr: 0x10000E89C, symSize: 0x14 }
  - { offsetInCU: 0x3BE0A, offset: 0x3BE0A, size: 0x8, addend: 0x0, symName: __ZNSt12_Vector_baseIiSaIiEE12_Vector_implC1Ev, symObjAddr: 0x9B08, symBinAddr: 0x10000E814, symSize: 0x38 }
  - { offsetInCU: 0x3BE12, offset: 0x3BE12, size: 0x8, addend: 0x0, symName: __ZNSt12_Vector_baseIiSaIiEED2Ev, symObjAddr: 0x9B40, symBinAddr: 0x10000E84C, symSize: 0x50 }
  - { offsetInCU: 0x3BE48, offset: 0x3BE48, size: 0x8, addend: 0x0, symName: __ZSt12construct_atISt6vectorIiSaIiEEJEEDTgsnwcvPvLi0E_T_pispcl7declvalIT0_EEEEPS4_DpOS5_, symObjAddr: 0x9AC4, symBinAddr: 0x10000E7D0, symSize: 0x44 }
  - { offsetInCU: 0x3BE50, offset: 0x3BE50, size: 0x8, addend: 0x0, symName: __ZNSt12_Vector_baseIiSaIiEE12_Vector_implC1Ev, symObjAddr: 0x9B08, symBinAddr: 0x10000E814, symSize: 0x38 }
  - { offsetInCU: 0x3BEFC, offset: 0x3BEFC, size: 0x8, addend: 0x0, symName: __ZSt4moveIRSt6vectorIxSaIxEEEONSt16remove_referenceIT_E4typeEOS5_, symObjAddr: 0x9AB0, symBinAddr: 0x10000E7BC, symSize: 0x14 }
  - { offsetInCU: 0x3BF04, offset: 0x3BF04, size: 0x8, addend: 0x0, symName: __ZSt12construct_atISt6vectorIiSaIiEEJEEDTgsnwcvPvLi0E_T_pispcl7declvalIT0_EEEEPS4_DpOS5_, symObjAddr: 0x9AC4, symBinAddr: 0x10000E7D0, symSize: 0x44 }
  - { offsetInCU: 0x3BF45, offset: 0x3BF45, size: 0x8, addend: 0x0, symName: __ZSt12construct_atISt6vectorIxSaIxEEJEEDTgsnwcvPvLi0E_T_pispcl7declvalIT0_EEEEPS4_DpOS5_, symObjAddr: 0x9A6C, symBinAddr: 0x10000E778, symSize: 0x44 }
  - { offsetInCU: 0x3BF4D, offset: 0x3BF4D, size: 0x8, addend: 0x0, symName: __ZSt4moveIRSt6vectorIxSaIxEEEONSt16remove_referenceIT_E4typeEOS5_, symObjAddr: 0x9AB0, symBinAddr: 0x10000E7BC, symSize: 0x14 }
  - { offsetInCU: 0x3BFF9, offset: 0x3BFF9, size: 0x8, addend: 0x0, symName: __ZSt4moveIRSt6vectorISt4pairIxxESaIS2_EEEONSt16remove_referenceIT_E4typeEOS7_, symObjAddr: 0x9A58, symBinAddr: 0x10000E764, symSize: 0x14 }
  - { offsetInCU: 0x3C001, offset: 0x3C001, size: 0x8, addend: 0x0, symName: __ZSt12construct_atISt6vectorIxSaIxEEJEEDTgsnwcvPvLi0E_T_pispcl7declvalIT0_EEEEPS4_DpOS5_, symObjAddr: 0x9A6C, symBinAddr: 0x10000E778, symSize: 0x44 }
  - { offsetInCU: 0x3C094, offset: 0x3C094, size: 0x8, addend: 0x0, symName: __ZNSt12_Vector_baseISt4pairIxxESaIS1_EED2Ev, symObjAddr: 0x9A08, symBinAddr: 0x10000E714, symSize: 0x50 }
  - { offsetInCU: 0x3C09C, offset: 0x3C09C, size: 0x8, addend: 0x0, symName: __ZSt4moveIRSt6vectorISt4pairIxxESaIS2_EEEONSt16remove_referenceIT_E4typeEOS7_, symObjAddr: 0x9A58, symBinAddr: 0x10000E764, symSize: 0x14 }
  - { offsetInCU: 0x3C105, offset: 0x3C105, size: 0x8, addend: 0x0, symName: __ZNSt12_Vector_baseISt4pairIxxESaIS1_EE12_Vector_implC1Ev, symObjAddr: 0x99D0, symBinAddr: 0x10000E6DC, symSize: 0x38 }
  - { offsetInCU: 0x3C10D, offset: 0x3C10D, size: 0x8, addend: 0x0, symName: __ZNSt12_Vector_baseISt4pairIxxESaIS1_EED2Ev, symObjAddr: 0x9A08, symBinAddr: 0x10000E714, symSize: 0x50 }
  - { offsetInCU: 0x3C137, offset: 0x3C137, size: 0x8, addend: 0x0, symName: __ZSt12construct_atISt6vectorISt4pairIxxESaIS2_EEJEEDTgsnwcvPvLi0E_T_pispcl7declvalIT0_EEEEPS6_DpOS7_, symObjAddr: 0x998C, symBinAddr: 0x10000E698, symSize: 0x44 }
  - { offsetInCU: 0x3C13F, offset: 0x3C13F, size: 0x8, addend: 0x0, symName: __ZNSt12_Vector_baseISt4pairIxxESaIS1_EE12_Vector_implC1Ev, symObjAddr: 0x99D0, symBinAddr: 0x10000E6DC, symSize: 0x38 }
  - { offsetInCU: 0x3C173, offset: 0x3C173, size: 0x8, addend: 0x0, symName: __ZSt14__copy_move_a2ILb1EPxS0_ET1_T0_S2_S1_, symObjAddr: 0x9934, symBinAddr: 0x10000E640, symSize: 0x58 }
  - { offsetInCU: 0x3C17B, offset: 0x3C17B, size: 0x8, addend: 0x0, symName: __ZSt12construct_atISt6vectorISt4pairIxxESaIS2_EEJEEDTgsnwcvPvLi0E_T_pispcl7declvalIT0_EEEEPS6_DpOS7_, symObjAddr: 0x998C, symBinAddr: 0x10000E698, symSize: 0x44 }
  - { offsetInCU: 0x3C1EA, offset: 0x3C1EA, size: 0x8, addend: 0x0, symName: __ZNK9__gnu_cxx5__ops14_Val_less_iterclIxNS_17__normal_iteratorIPxSt6vectorIxSaIxEEEEEEbRT_T0_, symObjAddr: 0x98F0, symBinAddr: 0x10000E5FC, symSize: 0x44 }
  - { offsetInCU: 0x3C1F2, offset: 0x3C1F2, size: 0x8, addend: 0x0, symName: __ZSt14__copy_move_a2ILb1EPxS0_ET1_T0_S2_S1_, symObjAddr: 0x9934, symBinAddr: 0x10000E640, symSize: 0x58 }
  - { offsetInCU: 0x3C243, offset: 0x3C243, size: 0x8, addend: 0x0, symName: __ZSt22__copy_move_backward_aILb1EN9__gnu_cxx17__normal_iteratorIPxSt6vectorIxSaIxEEEES6_ET1_T0_S8_S7_, symObjAddr: 0x9890, symBinAddr: 0x10000E59C, symSize: 0x60 }
  - { offsetInCU: 0x3C24B, offset: 0x3C24B, size: 0x8, addend: 0x0, symName: __ZNK9__gnu_cxx5__ops14_Val_less_iterclIxNS_17__normal_iteratorIPxSt6vectorIxSaIxEEEEEEbRT_T0_, symObjAddr: 0x98F0, symBinAddr: 0x10000E5FC, symSize: 0x44 }
  - { offsetInCU: 0x3C2AB, offset: 0x3C2AB, size: 0x8, addend: 0x0, symName: __ZSt9iter_swapIN9__gnu_cxx17__normal_iteratorIPxSt6vectorIxSaIxEEEES6_EvT_T0_, symObjAddr: 0x984C, symBinAddr: 0x10000E558, symSize: 0x44 }
  - { offsetInCU: 0x3C2B3, offset: 0x3C2B3, size: 0x8, addend: 0x0, symName: __ZSt22__copy_move_backward_aILb1EN9__gnu_cxx17__normal_iteratorIPxSt6vectorIxSaIxEEEES6_ET1_T0_S8_S7_, symObjAddr: 0x9890, symBinAddr: 0x10000E59C, symSize: 0x60 }
  - { offsetInCU: 0x3C2FD, offset: 0x3C2FD, size: 0x8, addend: 0x0, symName: __ZSt10__pop_heapIN9__gnu_cxx17__normal_iteratorIPxSt6vectorIxSaIxEEEENS0_5__ops15_Iter_less_iterEEvT_S9_S9_RT0_, symObjAddr: 0x97BC, symBinAddr: 0x10000E4C8, symSize: 0x90 }
  - { offsetInCU: 0x3C305, offset: 0x3C305, size: 0x8, addend: 0x0, symName: __ZSt9iter_swapIN9__gnu_cxx17__normal_iteratorIPxSt6vectorIxSaIxEEEES6_EvT_T0_, symObjAddr: 0x984C, symBinAddr: 0x10000E558, symSize: 0x44 }
  - { offsetInCU: 0x3C393, offset: 0x3C393, size: 0x8, addend: 0x0, symName: __ZSt11__make_heapIN9__gnu_cxx17__normal_iteratorIPxSt6vectorIxSaIxEEEENS0_5__ops15_Iter_less_iterEEvT_S9_RT0_, symObjAddr: 0x96DC, symBinAddr: 0x10000E3E8, symSize: 0xE0 }
  - { offsetInCU: 0x3C39B, offset: 0x3C39B, size: 0x8, addend: 0x0, symName: __ZSt10__pop_heapIN9__gnu_cxx17__normal_iteratorIPxSt6vectorIxSaIxEEEENS0_5__ops15_Iter_less_iterEEvT_S9_S9_RT0_, symObjAddr: 0x97BC, symBinAddr: 0x10000E4C8, symSize: 0x90 }
  - { offsetInCU: 0x3C44A, offset: 0x3C44A, size: 0x8, addend: 0x0, symName: __ZSt10destroy_atISt6vectorIiSaIiEEEvPT_, symObjAddr: 0x96BC, symBinAddr: 0x10000E3C8, symSize: 0x20 }
  - { offsetInCU: 0x3C452, offset: 0x3C452, size: 0x8, addend: 0x0, symName: __ZSt11__make_heapIN9__gnu_cxx17__normal_iteratorIPxSt6vectorIxSaIxEEEENS0_5__ops15_Iter_less_iterEEvT_S9_RT0_, symObjAddr: 0x96DC, symBinAddr: 0x10000E3E8, symSize: 0xE0 }
  - { offsetInCU: 0x3C47C, offset: 0x3C47C, size: 0x8, addend: 0x0, symName: __ZSt10destroy_atISt6vectorISt4pairIxxESaIS2_EEEvPT_, symObjAddr: 0x969C, symBinAddr: 0x10000E3A8, symSize: 0x20 }
  - { offsetInCU: 0x3C484, offset: 0x3C484, size: 0x8, addend: 0x0, symName: __ZSt10destroy_atISt6vectorIiSaIiEEEvPT_, symObjAddr: 0x96BC, symBinAddr: 0x10000E3C8, symSize: 0x20 }
  - { offsetInCU: 0x3C4AE, offset: 0x3C4AE, size: 0x8, addend: 0x0, symName: __ZSt10destroy_atISt6vectorIxSaIxEEEvPT_, symObjAddr: 0x967C, symBinAddr: 0x10000E388, symSize: 0x20 }
  - { offsetInCU: 0x3C4B6, offset: 0x3C4B6, size: 0x8, addend: 0x0, symName: __ZSt10destroy_atISt6vectorISt4pairIxxESaIS2_EEEvPT_, symObjAddr: 0x969C, symBinAddr: 0x10000E3A8, symSize: 0x20 }
  - { offsetInCU: 0x3C4E4, offset: 0x3C4E4, size: 0x8, addend: 0x0, symName: __ZNK9__gnu_cxx17__normal_iteratorIPxvE4baseEv, symObjAddr: 0x9668, symBinAddr: 0x10000E374, symSize: 0x14 }
  - { offsetInCU: 0x3C4EC, offset: 0x3C4EC, size: 0x8, addend: 0x0, symName: __ZSt10destroy_atISt6vectorIxSaIxEEEvPT_, symObjAddr: 0x967C, symBinAddr: 0x10000E388, symSize: 0x20 }
  - { offsetInCU: 0x3C50B, offset: 0x3C50B, size: 0x8, addend: 0x0, symName: __ZSt14__relocate_a_1IPxN9__gnu_cxx17__normal_iteratorIS0_vEESaIxEET0_T_S6_S5_RT1_, symObjAddr: 0x95E4, symBinAddr: 0x10000E2F0, symSize: 0x84 }
  - { offsetInCU: 0x3C513, offset: 0x3C513, size: 0x8, addend: 0x0, symName: __ZNK9__gnu_cxx17__normal_iteratorIPxvE4baseEv, symObjAddr: 0x9668, symBinAddr: 0x10000E374, symSize: 0x14 }
  - { offsetInCU: 0x3C598, offset: 0x3C598, size: 0x8, addend: 0x0, symName: __ZNSt15__new_allocatorIxE8allocateEmPKv, symObjAddr: 0x9568, symBinAddr: 0x10000E274, symSize: 0x7C }
  - { offsetInCU: 0x3C5A0, offset: 0x3C5A0, size: 0x8, addend: 0x0, symName: __ZSt14__relocate_a_1IPxN9__gnu_cxx17__normal_iteratorIS0_vEESaIxEET0_T_S6_S5_RT1_, symObjAddr: 0x95E4, symBinAddr: 0x10000E2F0, symSize: 0x84 }
  - { offsetInCU: 0x3C60B, offset: 0x3C60B, size: 0x8, addend: 0x0, symName: __ZSt6fill_nIPxmxET_S1_T0_RKT1_, symObjAddr: 0x9520, symBinAddr: 0x10000E22C, symSize: 0x48 }
  - { offsetInCU: 0x3C613, offset: 0x3C613, size: 0x8, addend: 0x0, symName: __ZNSt15__new_allocatorIxE8allocateEmPKv, symObjAddr: 0x9568, symBinAddr: 0x10000E274, symSize: 0x7C }
  - { offsetInCU: 0x3C693, offset: 0x3C693, size: 0x8, addend: 0x0, symName: __ZSt23__copy_move_backward_a2ILb1EPxS0_ET1_T0_S2_S1_, symObjAddr: 0x94C8, symBinAddr: 0x10000E1D4, symSize: 0x58 }
  - { offsetInCU: 0x3C69B, offset: 0x3C69B, size: 0x8, addend: 0x0, symName: __ZSt6fill_nIPxmxET_S1_T0_RKT1_, symObjAddr: 0x9520, symBinAddr: 0x10000E22C, symSize: 0x48 }
  - { offsetInCU: 0x3C6FB, offset: 0x3C6FB, size: 0x8, addend: 0x0, symName: __ZNSt20__uninitialized_copyILb1EE13__uninit_copyISt13move_iteratorIPxES3_EET0_T_S6_S5_, symObjAddr: 0x949C, symBinAddr: 0x10000E1A8, symSize: 0x2C }
  - { offsetInCU: 0x3C703, offset: 0x3C703, size: 0x8, addend: 0x0, symName: __ZSt23__copy_move_backward_a2ILb1EPxS0_ET1_T0_S2_S1_, symObjAddr: 0x94C8, symBinAddr: 0x10000E1D4, symSize: 0x58 }
  - { offsetInCU: 0x3C756, offset: 0x3C756, size: 0x8, addend: 0x0, symName: __ZSt10_ConstructIxJxEEvPT_DpOT0_, symObjAddr: 0x942C, symBinAddr: 0x10000E138, symSize: 0x70 }
  - { offsetInCU: 0x3C75E, offset: 0x3C75E, size: 0x8, addend: 0x0, symName: __ZNSt20__uninitialized_copyILb1EE13__uninit_copyISt13move_iteratorIPxES3_EET0_T_S6_S5_, symObjAddr: 0x949C, symBinAddr: 0x10000E1A8, symSize: 0x2C }
  - { offsetInCU: 0x3C7A6, offset: 0x3C7A6, size: 0x8, addend: 0x0, symName: __ZNKSt13move_iteratorIPxEdeEv, symObjAddr: 0x9404, symBinAddr: 0x10000E110, symSize: 0x28 }
  - { offsetInCU: 0x3C7AE, offset: 0x3C7AE, size: 0x8, addend: 0x0, symName: __ZSt10_ConstructIxJxEEvPT_DpOT0_, symObjAddr: 0x942C, symBinAddr: 0x10000E138, symSize: 0x70 }
  - { offsetInCU: 0x3C7D1, offset: 0x3C7D1, size: 0x8, addend: 0x0, symName: __ZNSt13move_iteratorIPxEppEv, symObjAddr: 0x93DC, symBinAddr: 0x10000E0E8, symSize: 0x28 }
  - { offsetInCU: 0x3C7D9, offset: 0x3C7D9, size: 0x8, addend: 0x0, symName: __ZNKSt13move_iteratorIPxEdeEv, symObjAddr: 0x9404, symBinAddr: 0x10000E110, symSize: 0x28 }
  - { offsetInCU: 0x3C7F8, offset: 0x3C7F8, size: 0x8, addend: 0x0, symName: __ZSt8_DestroyIiEvPT_, symObjAddr: 0x93BC, symBinAddr: 0x10000E0C8, symSize: 0x20 }
  - { offsetInCU: 0x3C800, offset: 0x3C800, size: 0x8, addend: 0x0, symName: __ZNSt13move_iteratorIPxEppEv, symObjAddr: 0x93DC, symBinAddr: 0x10000E0E8, symSize: 0x28 }
  - { offsetInCU: 0x3C82E, offset: 0x3C82E, size: 0x8, addend: 0x0, symName: __ZNK9__gnu_cxx17__normal_iteratorIPivE4baseEv, symObjAddr: 0x93A8, symBinAddr: 0x10000E0B4, symSize: 0x14 }
  - { offsetInCU: 0x3C836, offset: 0x3C836, size: 0x8, addend: 0x0, symName: __ZSt8_DestroyIiEvPT_, symObjAddr: 0x93BC, symBinAddr: 0x10000E0C8, symSize: 0x20 }
  - { offsetInCU: 0x3C855, offset: 0x3C855, size: 0x8, addend: 0x0, symName: __ZSt14__relocate_a_1IPiN9__gnu_cxx17__normal_iteratorIS0_vEESaIiEET0_T_S6_S5_RT1_, symObjAddr: 0x9324, symBinAddr: 0x10000E030, symSize: 0x84 }
  - { offsetInCU: 0x3C85D, offset: 0x3C85D, size: 0x8, addend: 0x0, symName: __ZNK9__gnu_cxx17__normal_iteratorIPivE4baseEv, symObjAddr: 0x93A8, symBinAddr: 0x10000E0B4, symSize: 0x14 }
  - { offsetInCU: 0x3C8E2, offset: 0x3C8E2, size: 0x8, addend: 0x0, symName: __ZNSt15__new_allocatorIiE10deallocateEPim, symObjAddr: 0x92F4, symBinAddr: 0x10000E000, symSize: 0x30 }
  - { offsetInCU: 0x3C8EA, offset: 0x3C8EA, size: 0x8, addend: 0x0, symName: __ZSt14__relocate_a_1IPiN9__gnu_cxx17__normal_iteratorIS0_vEESaIiEET0_T_S6_S5_RT1_, symObjAddr: 0x9324, symBinAddr: 0x10000E030, symSize: 0x84 }
  - { offsetInCU: 0x3C92D, offset: 0x3C92D, size: 0x8, addend: 0x0, symName: __ZNSt15__new_allocatorIiE8allocateEmPKv, symObjAddr: 0x9278, symBinAddr: 0x10000DF84, symSize: 0x7C }
  - { offsetInCU: 0x3C935, offset: 0x3C935, size: 0x8, addend: 0x0, symName: __ZNSt15__new_allocatorIiE10deallocateEPim, symObjAddr: 0x92F4, symBinAddr: 0x10000E000, symSize: 0x30 }
  - { offsetInCU: 0x3C9A0, offset: 0x3C9A0, size: 0x8, addend: 0x0, symName: __ZSt6fill_nIPimiET_S1_T0_RKT1_, symObjAddr: 0x9230, symBinAddr: 0x10000DF3C, symSize: 0x48 }
  - { offsetInCU: 0x3C9A8, offset: 0x3C9A8, size: 0x8, addend: 0x0, symName: __ZNSt15__new_allocatorIiE8allocateEmPKv, symObjAddr: 0x9278, symBinAddr: 0x10000DF84, symSize: 0x7C }
  - { offsetInCU: 0x3CA28, offset: 0x3CA28, size: 0x8, addend: 0x0, symName: __ZSt10_ConstructIiJEEvPT_DpOT0_, symObjAddr: 0x91E8, symBinAddr: 0x10000DEF4, symSize: 0x48 }
  - { offsetInCU: 0x3CA30, offset: 0x3CA30, size: 0x8, addend: 0x0, symName: __ZSt6fill_nIPimiET_S1_T0_RKT1_, symObjAddr: 0x9230, symBinAddr: 0x10000DF3C, symSize: 0x48 }
  - { offsetInCU: 0x3CA64, offset: 0x3CA64, size: 0x8, addend: 0x0, symName: __ZSt11__addressofIiEPT_RS0_, symObjAddr: 0x91D4, symBinAddr: 0x10000DEE0, symSize: 0x14 }
  - { offsetInCU: 0x3CA6C, offset: 0x3CA6C, size: 0x8, addend: 0x0, symName: __ZSt10_ConstructIiJEEvPT_DpOT0_, symObjAddr: 0x91E8, symBinAddr: 0x10000DEF4, symSize: 0x48 }
  - { offsetInCU: 0x3CA96, offset: 0x3CA96, size: 0x8, addend: 0x0, symName: __ZSt14__copy_move_a2ILb0EPSt4pairIxxES2_ET1_T0_S4_S3_, symObjAddr: 0x917C, symBinAddr: 0x10000DE88, symSize: 0x58 }
  - { offsetInCU: 0x3CA9E, offset: 0x3CA9E, size: 0x8, addend: 0x0, symName: __ZSt11__addressofIiEPT_RS0_, symObjAddr: 0x91D4, symBinAddr: 0x10000DEE0, symSize: 0x14 }
  - { offsetInCU: 0x3CAFE, offset: 0x3CAFE, size: 0x8, addend: 0x0, symName: __ZSt10_ConstructISt4pairIxxEJEEvPT_DpOT0_, symObjAddr: 0x9134, symBinAddr: 0x10000DE40, symSize: 0x48 }
  - { offsetInCU: 0x3CB06, offset: 0x3CB06, size: 0x8, addend: 0x0, symName: __ZSt14__copy_move_a2ILb0EPSt4pairIxxES2_ET1_T0_S4_S3_, symObjAddr: 0x917C, symBinAddr: 0x10000DE88, symSize: 0x58 }
  - { offsetInCU: 0x3CB3E, offset: 0x3CB3E, size: 0x8, addend: 0x0, symName: __ZNK9__gnu_cxx5__ops14_Val_less_iterclISt4pairIxxENS_17__normal_iteratorIPS4_St6vectorIS4_SaIS4_EEEEEEbRT_T0_, symObjAddr: 0x90DC, symBinAddr: 0x10000DDE8, symSize: 0x58 }
  - { offsetInCU: 0x3CB46, offset: 0x3CB46, size: 0x8, addend: 0x0, symName: __ZSt10_ConstructISt4pairIxxEJEEvPT_DpOT0_, symObjAddr: 0x9134, symBinAddr: 0x10000DE40, symSize: 0x48 }
  - { offsetInCU: 0x3CB97, offset: 0x3CB97, size: 0x8, addend: 0x0, symName: __ZSt22__copy_move_backward_aILb1EN9__gnu_cxx17__normal_iteratorIPSt4pairIxxESt6vectorIS3_SaIS3_EEEES8_ET1_T0_SA_S9_, symObjAddr: 0x907C, symBinAddr: 0x10000DD88, symSize: 0x60 }
  - { offsetInCU: 0x3CB9F, offset: 0x3CB9F, size: 0x8, addend: 0x0, symName: __ZNK9__gnu_cxx5__ops14_Val_less_iterclISt4pairIxxENS_17__normal_iteratorIPS4_St6vectorIS4_SaIS4_EEEEEEbRT_T0_, symObjAddr: 0x90DC, symBinAddr: 0x10000DDE8, symSize: 0x58 }
  - { offsetInCU: 0x3CBFF, offset: 0x3CBFF, size: 0x8, addend: 0x0, symName: __ZSt9iter_swapIN9__gnu_cxx17__normal_iteratorIPSt4pairIxxESt6vectorIS3_SaIS3_EEEES8_EvT_T0_, symObjAddr: 0x9038, symBinAddr: 0x10000DD44, symSize: 0x44 }
  - { offsetInCU: 0x3CC07, offset: 0x3CC07, size: 0x8, addend: 0x0, symName: __ZSt22__copy_move_backward_aILb1EN9__gnu_cxx17__normal_iteratorIPSt4pairIxxESt6vectorIS3_SaIS3_EEEES8_ET1_T0_SA_S9_, symObjAddr: 0x907C, symBinAddr: 0x10000DD88, symSize: 0x60 }
  - { offsetInCU: 0x3CC4A, offset: 0x3CC4A, size: 0x8, addend: 0x0, symName: __ZSt10__pop_heapIN9__gnu_cxx17__normal_iteratorIPSt4pairIxxESt6vectorIS3_SaIS3_EEEENS0_5__ops15_Iter_less_iterEEvT_SB_SB_RT0_, symObjAddr: 0x8FA8, symBinAddr: 0x10000DCB4, symSize: 0x90 }
  - { offsetInCU: 0x3CC52, offset: 0x3CC52, size: 0x8, addend: 0x0, symName: __ZSt9iter_swapIN9__gnu_cxx17__normal_iteratorIPSt4pairIxxESt6vectorIS3_SaIS3_EEEES8_EvT_T0_, symObjAddr: 0x9038, symBinAddr: 0x10000DD44, symSize: 0x44 }
  - { offsetInCU: 0x3CCE0, offset: 0x3CCE0, size: 0x8, addend: 0x0, symName: __ZSt11__make_heapIN9__gnu_cxx17__normal_iteratorIPSt4pairIxxESt6vectorIS3_SaIS3_EEEENS0_5__ops15_Iter_less_iterEEvT_SB_RT0_, symObjAddr: 0x8ECC, symBinAddr: 0x10000DBD8, symSize: 0xDC }
  - { offsetInCU: 0x3CCE8, offset: 0x3CCE8, size: 0x8, addend: 0x0, symName: __ZSt10__pop_heapIN9__gnu_cxx17__normal_iteratorIPSt4pairIxxESt6vectorIS3_SaIS3_EEEENS0_5__ops15_Iter_less_iterEEvT_SB_SB_RT0_, symObjAddr: 0x8FA8, symBinAddr: 0x10000DCB4, symSize: 0x90 }
  - { offsetInCU: 0x3CD9C, offset: 0x3CD9C, size: 0x8, addend: 0x0, symName: __ZNSt15__new_allocatorISt4pairIxxEE10deallocateEPS1_m, symObjAddr: 0x8E9C, symBinAddr: 0x10000DBA8, symSize: 0x30 }
  - { offsetInCU: 0x3CDA4, offset: 0x3CDA4, size: 0x8, addend: 0x0, symName: __ZSt11__make_heapIN9__gnu_cxx17__normal_iteratorIPSt4pairIxxESt6vectorIS3_SaIS3_EEEENS0_5__ops15_Iter_less_iterEEvT_SB_RT0_, symObjAddr: 0x8ECC, symBinAddr: 0x10000DBD8, symSize: 0xDC }
  - { offsetInCU: 0x3CDE3, offset: 0x3CDE3, size: 0x8, addend: 0x0, symName: __ZSt8_DestroyISt4pairIxxEEvPT_, symObjAddr: 0x8E7C, symBinAddr: 0x10000DB88, symSize: 0x20 }
  - { offsetInCU: 0x3CDEB, offset: 0x3CDEB, size: 0x8, addend: 0x0, symName: __ZNSt15__new_allocatorISt4pairIxxEE10deallocateEPS1_m, symObjAddr: 0x8E9C, symBinAddr: 0x10000DBA8, symSize: 0x30 }
  - { offsetInCU: 0x3CE15, offset: 0x3CE15, size: 0x8, addend: 0x0, symName: __ZSt19__relocate_object_aISt4pairIxxES1_SaIS1_EEvPT_PT0_RT1_, symObjAddr: 0x8E00, symBinAddr: 0x10000DB0C, symSize: 0x7C }
  - { offsetInCU: 0x3CE1D, offset: 0x3CE1D, size: 0x8, addend: 0x0, symName: __ZSt8_DestroyISt4pairIxxEEvPT_, symObjAddr: 0x8E7C, symBinAddr: 0x10000DB88, symSize: 0x20 }
  - { offsetInCU: 0x3CEE0, offset: 0x3CEE0, size: 0x8, addend: 0x0, symName: __ZSt11__addressofISt4pairIxxEEPT_RS2_, symObjAddr: 0x8DEC, symBinAddr: 0x10000DAF8, symSize: 0x14 }
  - { offsetInCU: 0x3CEE8, offset: 0x3CEE8, size: 0x8, addend: 0x0, symName: __ZSt19__relocate_object_aISt4pairIxxES1_SaIS1_EEvPT_PT0_RT1_, symObjAddr: 0x8E00, symBinAddr: 0x10000DB0C, symSize: 0x7C }
  - { offsetInCU: 0x3CF16, offset: 0x3CF16, size: 0x8, addend: 0x0, symName: __ZNSt15__new_allocatorISt4pairIxxEE8allocateEmPKv, symObjAddr: 0x8D70, symBinAddr: 0x10000DA7C, symSize: 0x7C }
  - { offsetInCU: 0x3CF1E, offset: 0x3CF1E, size: 0x8, addend: 0x0, symName: __ZSt11__addressofISt4pairIxxEEPT_RS2_, symObjAddr: 0x8DEC, symBinAddr: 0x10000DAF8, symSize: 0x14 }
  - { offsetInCU: 0x3CF8D, offset: 0x3CF8D, size: 0x8, addend: 0x0, symName: __ZN9__gnu_cxx17__normal_iteratorIPxSt6vectorIxSaIxEEEpLEl, symObjAddr: 0x8D3C, symBinAddr: 0x10000DA48, symSize: 0x34 }
  - { offsetInCU: 0x3CF95, offset: 0x3CF95, size: 0x8, addend: 0x0, symName: __ZNSt15__new_allocatorISt4pairIxxEE8allocateEmPKv, symObjAddr: 0x8D70, symBinAddr: 0x10000DA7C, symSize: 0x7C }
  - { offsetInCU: 0x3CFC9, offset: 0x3CFC9, size: 0x8, addend: 0x0, symName: __ZN9__gnu_cxx17__normal_iteratorIPxSt6vectorIxSaIxEEEmmEv, symObjAddr: 0x8D14, symBinAddr: 0x10000DA20, symSize: 0x28 }
  - { offsetInCU: 0x3CFD1, offset: 0x3CFD1, size: 0x8, addend: 0x0, symName: __ZN9__gnu_cxx17__normal_iteratorIPxSt6vectorIxSaIxEEEpLEl, symObjAddr: 0x8D3C, symBinAddr: 0x10000DA48, symSize: 0x34 }
  - { offsetInCU: 0x3CFF0, offset: 0x3CFF0, size: 0x8, addend: 0x0, symName: __ZSt19__relocate_object_aISt6vectorIiSaIiEES2_SaIS2_EEvPT_PT0_RT1_, symObjAddr: 0x8C98, symBinAddr: 0x10000D9A4, symSize: 0x7C }
  - { offsetInCU: 0x3CFF8, offset: 0x3CFF8, size: 0x8, addend: 0x0, symName: __ZN9__gnu_cxx17__normal_iteratorIPxSt6vectorIxSaIxEEEmmEv, symObjAddr: 0x8D14, symBinAddr: 0x10000DA20, symSize: 0x28 }
  - { offsetInCU: 0x3D0BF, offset: 0x3D0BF, size: 0x8, addend: 0x0, symName: __ZNSt15__new_allocatorISt6vectorIiSaIiEEE8allocateEmPKv, symObjAddr: 0x8C08, symBinAddr: 0x10000D914, symSize: 0x90 }
  - { offsetInCU: 0x3D0C7, offset: 0x3D0C7, size: 0x8, addend: 0x0, symName: __ZSt19__relocate_object_aISt6vectorIiSaIiEES2_SaIS2_EEvPT_PT0_RT1_, symObjAddr: 0x8C98, symBinAddr: 0x10000D9A4, symSize: 0x7C }
  - { offsetInCU: 0x3D132, offset: 0x3D132, size: 0x8, addend: 0x0, symName: __ZSt10_ConstructISt6vectorIiSaIiEEJEEvPT_DpOT0_, symObjAddr: 0x8BB8, symBinAddr: 0x10000D8C4, symSize: 0x50 }
  - { offsetInCU: 0x3D13A, offset: 0x3D13A, size: 0x8, addend: 0x0, symName: __ZNSt15__new_allocatorISt6vectorIiSaIiEEE8allocateEmPKv, symObjAddr: 0x8C08, symBinAddr: 0x10000D914, symSize: 0x90 }
  - { offsetInCU: 0x3D1A2, offset: 0x3D1A2, size: 0x8, addend: 0x0, symName: __ZNSt6vectorIiSaIiEEC1Ev, symObjAddr: 0x8B98, symBinAddr: 0x10000D8A4, symSize: 0x20 }
  - { offsetInCU: 0x3D1AA, offset: 0x3D1AA, size: 0x8, addend: 0x0, symName: __ZSt10_ConstructISt6vectorIiSaIiEEJEEvPT_DpOT0_, symObjAddr: 0x8BB8, symBinAddr: 0x10000D8C4, symSize: 0x50 }
  - { offsetInCU: 0x3D1EA, offset: 0x3D1EA, size: 0x8, addend: 0x0, symName: __ZNSt12_Vector_baseIiSaIiEEC2Ev, symObjAddr: 0x8B78, symBinAddr: 0x10000D884, symSize: 0x20 }
  - { offsetInCU: 0x3D1F2, offset: 0x3D1F2, size: 0x8, addend: 0x0, symName: __ZNSt6vectorIiSaIiEEC1Ev, symObjAddr: 0x8B98, symBinAddr: 0x10000D8A4, symSize: 0x20 }
  - { offsetInCU: 0x3D247, offset: 0x3D247, size: 0x8, addend: 0x0, symName: __ZNSt12_Vector_baseIiSaIiEE12_Vector_implD1Ev, symObjAddr: 0x8B58, symBinAddr: 0x10000D864, symSize: 0x20 }
  - { offsetInCU: 0x3D24F, offset: 0x3D24F, size: 0x8, addend: 0x0, symName: __ZNSt12_Vector_baseIiSaIiEEC2Ev, symObjAddr: 0x8B78, symBinAddr: 0x10000D884, symSize: 0x20 }
  - { offsetInCU: 0x3D262, offset: 0x3D262, size: 0x8, addend: 0x0, symName: __ZSt19__relocate_object_aISt6vectorIxSaIxEES2_SaIS2_EEvPT_PT0_RT1_, symObjAddr: 0x8ADC, symBinAddr: 0x10000D7E8, symSize: 0x7C }
  - { offsetInCU: 0x3D26A, offset: 0x3D26A, size: 0x8, addend: 0x0, symName: __ZNSt12_Vector_baseIiSaIiEE12_Vector_implD1Ev, symObjAddr: 0x8B58, symBinAddr: 0x10000D864, symSize: 0x20 }
  - { offsetInCU: 0x3D331, offset: 0x3D331, size: 0x8, addend: 0x0, symName: __ZNSt15__new_allocatorISt6vectorIxSaIxEEE8allocateEmPKv, symObjAddr: 0x8A4C, symBinAddr: 0x10000D758, symSize: 0x90 }
  - { offsetInCU: 0x3D339, offset: 0x3D339, size: 0x8, addend: 0x0, symName: __ZSt19__relocate_object_aISt6vectorIxSaIxEES2_SaIS2_EEvPT_PT0_RT1_, symObjAddr: 0x8ADC, symBinAddr: 0x10000D7E8, symSize: 0x7C }
  - { offsetInCU: 0x3D3A4, offset: 0x3D3A4, size: 0x8, addend: 0x0, symName: __ZSt10_ConstructISt6vectorIxSaIxEEJEEvPT_DpOT0_, symObjAddr: 0x89FC, symBinAddr: 0x10000D708, symSize: 0x50 }
  - { offsetInCU: 0x3D3AC, offset: 0x3D3AC, size: 0x8, addend: 0x0, symName: __ZNSt15__new_allocatorISt6vectorIxSaIxEEE8allocateEmPKv, symObjAddr: 0x8A4C, symBinAddr: 0x10000D758, symSize: 0x90 }
  - { offsetInCU: 0x3D3E0, offset: 0x3D3E0, size: 0x8, addend: 0x0, symName: __ZSt19__relocate_object_aISt6vectorISt4pairIxxESaIS2_EES4_SaIS4_EEvPT_PT0_RT1_, symObjAddr: 0x8980, symBinAddr: 0x10000D68C, symSize: 0x7C }
  - { offsetInCU: 0x3D3E8, offset: 0x3D3E8, size: 0x8, addend: 0x0, symName: __ZSt10_ConstructISt6vectorIxSaIxEEJEEvPT_DpOT0_, symObjAddr: 0x89FC, symBinAddr: 0x10000D708, symSize: 0x50 }
  - { offsetInCU: 0x3D4AF, offset: 0x3D4AF, size: 0x8, addend: 0x0, symName: __ZNSt15__new_allocatorISt6vectorISt4pairIxxESaIS2_EEE8allocateEmPKv, symObjAddr: 0x88F0, symBinAddr: 0x10000D5FC, symSize: 0x90 }
  - { offsetInCU: 0x3D4B7, offset: 0x3D4B7, size: 0x8, addend: 0x0, symName: __ZSt19__relocate_object_aISt6vectorISt4pairIxxESaIS2_EES4_SaIS4_EEvPT_PT0_RT1_, symObjAddr: 0x8980, symBinAddr: 0x10000D68C, symSize: 0x7C }
  - { offsetInCU: 0x3D522, offset: 0x3D522, size: 0x8, addend: 0x0, symName: __ZSt10_ConstructISt6vectorISt4pairIxxESaIS2_EEJEEvPT_DpOT0_, symObjAddr: 0x88A0, symBinAddr: 0x10000D5AC, symSize: 0x50 }
  - { offsetInCU: 0x3D52A, offset: 0x3D52A, size: 0x8, addend: 0x0, symName: __ZNSt15__new_allocatorISt6vectorISt4pairIxxESaIS2_EEE8allocateEmPKv, symObjAddr: 0x88F0, symBinAddr: 0x10000D5FC, symSize: 0x90 }
  - { offsetInCU: 0x3D59E, offset: 0x3D59E, size: 0x8, addend: 0x0, symName: __ZNSt6vectorISt4pairIxxESaIS1_EEC1Ev, symObjAddr: 0x8880, symBinAddr: 0x10000D58C, symSize: 0x20 }
  - { offsetInCU: 0x3D5A6, offset: 0x3D5A6, size: 0x8, addend: 0x0, symName: __ZSt10_ConstructISt6vectorISt4pairIxxESaIS2_EEJEEvPT_DpOT0_, symObjAddr: 0x88A0, symBinAddr: 0x10000D5AC, symSize: 0x50 }
  - { offsetInCU: 0x3D5E6, offset: 0x3D5E6, size: 0x8, addend: 0x0, symName: __ZNSt12_Vector_baseISt4pairIxxESaIS1_EEC2Ev, symObjAddr: 0x8860, symBinAddr: 0x10000D56C, symSize: 0x20 }
  - { offsetInCU: 0x3D5EE, offset: 0x3D5EE, size: 0x8, addend: 0x0, symName: __ZNSt6vectorISt4pairIxxESaIS1_EEC1Ev, symObjAddr: 0x8880, symBinAddr: 0x10000D58C, symSize: 0x20 }
  - { offsetInCU: 0x3D643, offset: 0x3D643, size: 0x8, addend: 0x0, symName: __ZNSt12_Vector_baseISt4pairIxxESaIS1_EE12_Vector_implD1Ev, symObjAddr: 0x8840, symBinAddr: 0x10000D54C, symSize: 0x20 }
  - { offsetInCU: 0x3D64B, offset: 0x3D64B, size: 0x8, addend: 0x0, symName: __ZNSt12_Vector_baseISt4pairIxxESaIS1_EEC2Ev, symObjAddr: 0x8860, symBinAddr: 0x10000D56C, symSize: 0x20 }
  - { offsetInCU: 0x3D652, offset: 0x3D652, size: 0x8, addend: 0x0, symName: __ZSt12__niter_wrapIN9__gnu_cxx17__normal_iteratorIPxSt6vectorIxSaIxEEEES2_ET_S7_T0_, symObjAddr: 0x8804, symBinAddr: 0x10000D510, symSize: 0x3C }
  - { offsetInCU: 0x3D65A, offset: 0x3D65A, size: 0x8, addend: 0x0, symName: __ZNSt12_Vector_baseISt4pairIxxESaIS1_EE12_Vector_implD1Ev, symObjAddr: 0x8840, symBinAddr: 0x10000D54C, symSize: 0x20 }
  - { offsetInCU: 0x3D69F, offset: 0x3D69F, size: 0x8, addend: 0x0, symName: __ZSt14__copy_move_a1ILb1EPxS0_ET1_T0_S2_S1_, symObjAddr: 0x87D8, symBinAddr: 0x10000D4E4, symSize: 0x2C }
  - { offsetInCU: 0x3D6A7, offset: 0x3D6A7, size: 0x8, addend: 0x0, symName: __ZSt12__niter_wrapIN9__gnu_cxx17__normal_iteratorIPxSt6vectorIxSaIxEEEES2_ET_S7_T0_, symObjAddr: 0x8804, symBinAddr: 0x10000D510, symSize: 0x3C }
  - { offsetInCU: 0x3D707, offset: 0x3D707, size: 0x8, addend: 0x0, symName: __ZSt12__niter_baseIPxSt6vectorIxSaIxEEET_N9__gnu_cxx17__normal_iteratorIS4_T0_EE, symObjAddr: 0x87B8, symBinAddr: 0x10000D4C4, symSize: 0x20 }
  - { offsetInCU: 0x3D70F, offset: 0x3D70F, size: 0x8, addend: 0x0, symName: __ZSt14__copy_move_a1ILb1EPxS0_ET1_T0_S2_S1_, symObjAddr: 0x87D8, symBinAddr: 0x10000D4E4, symSize: 0x2C }
  - { offsetInCU: 0x3D743, offset: 0x3D743, size: 0x8, addend: 0x0, symName: __ZSt25__unguarded_linear_insertIN9__gnu_cxx17__normal_iteratorIPxSt6vectorIxSaIxEEEENS0_5__ops14_Val_less_iterEEvT_T0_, symObjAddr: 0x8708, symBinAddr: 0x10000D414, symSize: 0xB0 }
  - { offsetInCU: 0x3D74B, offset: 0x3D74B, size: 0x8, addend: 0x0, symName: __ZSt12__niter_baseIPxSt6vectorIxSaIxEEET_N9__gnu_cxx17__normal_iteratorIS4_T0_EE, symObjAddr: 0x87B8, symBinAddr: 0x10000D4C4, symSize: 0x20 }
  - { offsetInCU: 0x3D7B2, offset: 0x3D7B2, size: 0x8, addend: 0x0, symName: __ZSt13move_backwardIN9__gnu_cxx17__normal_iteratorIPxSt6vectorIxSaIxEEEES6_ET0_T_S8_S7_, symObjAddr: 0x86C0, symBinAddr: 0x10000D3CC, symSize: 0x48 }
  - { offsetInCU: 0x3D7BA, offset: 0x3D7BA, size: 0x8, addend: 0x0, symName: __ZSt25__unguarded_linear_insertIN9__gnu_cxx17__normal_iteratorIPxSt6vectorIxSaIxEEEENS0_5__ops14_Val_less_iterEEvT_T0_, symObjAddr: 0x8708, symBinAddr: 0x10000D414, symSize: 0xB0 }
  - { offsetInCU: 0x3D81F, offset: 0x3D81F, size: 0x8, addend: 0x0, symName: __ZNK9__gnu_cxx5__ops15_Iter_less_iterclINS_17__normal_iteratorIPxSt6vectorIxSaIxEEEES8_EEbT_T0_, symObjAddr: 0x8678, symBinAddr: 0x10000D384, symSize: 0x48 }
  - { offsetInCU: 0x3D827, offset: 0x3D827, size: 0x8, addend: 0x0, symName: __ZSt13move_backwardIN9__gnu_cxx17__normal_iteratorIPxSt6vectorIxSaIxEEEES6_ET0_T_S8_S7_, symObjAddr: 0x86C0, symBinAddr: 0x10000D3CC, symSize: 0x48 }
  - { offsetInCU: 0x3D878, offset: 0x3D878, size: 0x8, addend: 0x0, symName: __ZSt21__unguarded_partitionIN9__gnu_cxx17__normal_iteratorIPxSt6vectorIxSaIxEEEENS0_5__ops15_Iter_less_iterEET_S9_S9_S9_T0_, symObjAddr: 0x8590, symBinAddr: 0x10000D29C, symSize: 0xE8 }
  - { offsetInCU: 0x3D880, offset: 0x3D880, size: 0x8, addend: 0x0, symName: __ZNK9__gnu_cxx5__ops15_Iter_less_iterclINS_17__normal_iteratorIPxSt6vectorIxSaIxEEEES8_EEbT_T0_, symObjAddr: 0x8678, symBinAddr: 0x10000D384, symSize: 0x48 }
  - { offsetInCU: 0x3D8E7, offset: 0x3D8E7, size: 0x8, addend: 0x0, symName: __ZSt22__move_median_to_firstIN9__gnu_cxx17__normal_iteratorIPxSt6vectorIxSaIxEEEENS0_5__ops15_Iter_less_iterEEvT_S9_S9_S9_T0_, symObjAddr: 0x846C, symBinAddr: 0x10000D178, symSize: 0x124 }
  - { offsetInCU: 0x3D8EF, offset: 0x3D8EF, size: 0x8, addend: 0x0, symName: __ZSt21__unguarded_partitionIN9__gnu_cxx17__normal_iteratorIPxSt6vectorIxSaIxEEEENS0_5__ops15_Iter_less_iterEET_S9_S9_S9_T0_, symObjAddr: 0x8590, symBinAddr: 0x10000D29C, symSize: 0xE8 }
  - { offsetInCU: 0x3D966, offset: 0x3D966, size: 0x8, addend: 0x0, symName: __ZNK9__gnu_cxx17__normal_iteratorIPxSt6vectorIxSaIxEEEmiEl, symObjAddr: 0x8428, symBinAddr: 0x10000D134, symSize: 0x44 }
  - { offsetInCU: 0x3D96E, offset: 0x3D96E, size: 0x8, addend: 0x0, symName: __ZSt22__move_median_to_firstIN9__gnu_cxx17__normal_iteratorIPxSt6vectorIxSaIxEEEENS0_5__ops15_Iter_less_iterEEvT_S9_S9_S9_T0_, symObjAddr: 0x846C, symBinAddr: 0x10000D178, symSize: 0x124 }
  - { offsetInCU: 0x3D99E, offset: 0x3D99E, size: 0x8, addend: 0x0, symName: __ZSt11__sort_heapIN9__gnu_cxx17__normal_iteratorIPxSt6vectorIxSaIxEEEENS0_5__ops15_Iter_less_iterEEvT_S9_RT0_, symObjAddr: 0x83C0, symBinAddr: 0x10000D0CC, symSize: 0x68 }
  - { offsetInCU: 0x3D9A6, offset: 0x3D9A6, size: 0x8, addend: 0x0, symName: __ZNK9__gnu_cxx17__normal_iteratorIPxSt6vectorIxSaIxEEEmiEl, symObjAddr: 0x8428, symBinAddr: 0x10000D134, symSize: 0x44 }
  - { offsetInCU: 0x3D9FC, offset: 0x3D9FC, size: 0x8, addend: 0x0, symName: __ZSt13__heap_selectIN9__gnu_cxx17__normal_iteratorIPxSt6vectorIxSaIxEEEENS0_5__ops15_Iter_less_iterEEvT_S9_S9_T0_, symObjAddr: 0x82F8, symBinAddr: 0x10000D004, symSize: 0xC8 }
  - { offsetInCU: 0x3DA04, offset: 0x3DA04, size: 0x8, addend: 0x0, symName: __ZSt11__sort_heapIN9__gnu_cxx17__normal_iteratorIPxSt6vectorIxSaIxEEEENS0_5__ops15_Iter_less_iterEEvT_S9_RT0_, symObjAddr: 0x83C0, symBinAddr: 0x10000D0CC, symSize: 0x68 }
  - { offsetInCU: 0x3DA96, offset: 0x3DA96, size: 0x8, addend: 0x0, symName: __ZN9__gnu_cxxssIPxSt6vectorIxSaIxEEEEDTclL_ZNSt8__detail11__synth3wayEEcl7declvalIRT_EEcl7declvalIS7_EEEERKNS_17__normal_iteratorIS6_T0_EESD_, symObjAddr: 0x82B0, symBinAddr: 0x10000CFBC, symSize: 0x48 }
  - { offsetInCU: 0x3DA9E, offset: 0x3DA9E, size: 0x8, addend: 0x0, symName: __ZSt13__heap_selectIN9__gnu_cxx17__normal_iteratorIPxSt6vectorIxSaIxEEEENS0_5__ops15_Iter_less_iterEEvT_S9_S9_T0_, symObjAddr: 0x82F8, symBinAddr: 0x10000D004, symSize: 0xC8 }
  - { offsetInCU: 0x3DAF2, offset: 0x3DAF2, size: 0x8, addend: 0x0, symName: __ZNKSt8__detail10_Synth3wayclIPxS2_EEDaRKT_RKT0_, symObjAddr: 0x8254, symBinAddr: 0x10000CF60, symSize: 0x5C }
  - { offsetInCU: 0x3DAFA, offset: 0x3DAFA, size: 0x8, addend: 0x0, symName: __ZN9__gnu_cxxssIPxSt6vectorIxSaIxEEEEDTclL_ZNSt8__detail11__synth3wayEEcl7declvalIRT_EEcl7declvalIS7_EEEERKNS_17__normal_iteratorIS6_T0_EESD_, symObjAddr: 0x82B0, symBinAddr: 0x10000CFBC, symSize: 0x48 }
  - { offsetInCU: 0x3DB4D, offset: 0x3DB4D, size: 0x8, addend: 0x0, symName: __ZSt8_DestroyISt6vectorIiSaIiEEEvPT_, symObjAddr: 0x8234, symBinAddr: 0x10000CF40, symSize: 0x20 }
  - { offsetInCU: 0x3DB55, offset: 0x3DB55, size: 0x8, addend: 0x0, symName: __ZNKSt8__detail10_Synth3wayclIPxS2_EEDaRKT_RKT0_, symObjAddr: 0x8254, symBinAddr: 0x10000CF60, symSize: 0x5C }
  - { offsetInCU: 0x3DB7F, offset: 0x3DB7F, size: 0x8, addend: 0x0, symName: __ZSt11__addressofISt6vectorIiSaIiEEEPT_RS3_, symObjAddr: 0x8220, symBinAddr: 0x10000CF2C, symSize: 0x14 }
  - { offsetInCU: 0x3DB87, offset: 0x3DB87, size: 0x8, addend: 0x0, symName: __ZSt8_DestroyISt6vectorIiSaIiEEEvPT_, symObjAddr: 0x8234, symBinAddr: 0x10000CF40, symSize: 0x20 }
  - { offsetInCU: 0x3DBB5, offset: 0x3DBB5, size: 0x8, addend: 0x0, symName: __ZNSt15__new_allocatorISt6vectorIiSaIiEEE10deallocateEPS2_m, symObjAddr: 0x81E4, symBinAddr: 0x10000CEF0, symSize: 0x3C }
  - { offsetInCU: 0x3DBBD, offset: 0x3DBBD, size: 0x8, addend: 0x0, symName: __ZSt11__addressofISt6vectorIiSaIiEEEPT_RS3_, symObjAddr: 0x8220, symBinAddr: 0x10000CF2C, symSize: 0x14 }
  - { offsetInCU: 0x3DBFC, offset: 0x3DBFC, size: 0x8, addend: 0x0, symName: __ZSt8_DestroyISt6vectorISt4pairIxxESaIS2_EEEvPT_, symObjAddr: 0x81C4, symBinAddr: 0x10000CED0, symSize: 0x20 }
  - { offsetInCU: 0x3DC04, offset: 0x3DC04, size: 0x8, addend: 0x0, symName: __ZNSt15__new_allocatorISt6vectorIiSaIiEEE10deallocateEPS2_m, symObjAddr: 0x81E4, symBinAddr: 0x10000CEF0, symSize: 0x3C }
  - { offsetInCU: 0x3DC2E, offset: 0x3DC2E, size: 0x8, addend: 0x0, symName: __ZSt11__addressofISt6vectorISt4pairIxxESaIS2_EEEPT_RS5_, symObjAddr: 0x81B0, symBinAddr: 0x10000CEBC, symSize: 0x14 }
  - { offsetInCU: 0x3DC36, offset: 0x3DC36, size: 0x8, addend: 0x0, symName: __ZSt8_DestroyISt6vectorISt4pairIxxESaIS2_EEEvPT_, symObjAddr: 0x81C4, symBinAddr: 0x10000CED0, symSize: 0x20 }
  - { offsetInCU: 0x3DC64, offset: 0x3DC64, size: 0x8, addend: 0x0, symName: __ZNSt15__new_allocatorISt6vectorISt4pairIxxESaIS2_EEE10deallocateEPS4_m, symObjAddr: 0x8174, symBinAddr: 0x10000CE80, symSize: 0x3C }
  - { offsetInCU: 0x3DC6C, offset: 0x3DC6C, size: 0x8, addend: 0x0, symName: __ZSt11__addressofISt6vectorISt4pairIxxESaIS2_EEEPT_RS5_, symObjAddr: 0x81B0, symBinAddr: 0x10000CEBC, symSize: 0x14 }
  - { offsetInCU: 0x3DCAB, offset: 0x3DCAB, size: 0x8, addend: 0x0, symName: __ZSt8_DestroyISt6vectorIxSaIxEEEvPT_, symObjAddr: 0x8154, symBinAddr: 0x10000CE60, symSize: 0x20 }
  - { offsetInCU: 0x3DCB3, offset: 0x3DCB3, size: 0x8, addend: 0x0, symName: __ZNSt15__new_allocatorISt6vectorISt4pairIxxESaIS2_EEE10deallocateEPS4_m, symObjAddr: 0x8174, symBinAddr: 0x10000CE80, symSize: 0x3C }
  - { offsetInCU: 0x3DCDD, offset: 0x3DCDD, size: 0x8, addend: 0x0, symName: __ZSt11__addressofISt6vectorIxSaIxEEEPT_RS3_, symObjAddr: 0x8140, symBinAddr: 0x10000CE4C, symSize: 0x14 }
  - { offsetInCU: 0x3DCE5, offset: 0x3DCE5, size: 0x8, addend: 0x0, symName: __ZSt8_DestroyISt6vectorIxSaIxEEEvPT_, symObjAddr: 0x8154, symBinAddr: 0x10000CE60, symSize: 0x20 }
  - { offsetInCU: 0x3DD13, offset: 0x3DD13, size: 0x8, addend: 0x0, symName: __ZNSt15__new_allocatorISt6vectorIxSaIxEEE10deallocateEPS2_m, symObjAddr: 0x8104, symBinAddr: 0x10000CE10, symSize: 0x3C }
  - { offsetInCU: 0x3DD1B, offset: 0x3DD1B, size: 0x8, addend: 0x0, symName: __ZSt11__addressofISt6vectorIxSaIxEEEPT_RS3_, symObjAddr: 0x8140, symBinAddr: 0x10000CE4C, symSize: 0x14 }
  - { offsetInCU: 0x3DD5A, offset: 0x3DD5A, size: 0x8, addend: 0x0, symName: __ZSt8_DestroyIxEvPT_, symObjAddr: 0x80E4, symBinAddr: 0x10000CDF0, symSize: 0x20 }
  - { offsetInCU: 0x3DD62, offset: 0x3DD62, size: 0x8, addend: 0x0, symName: __ZNSt15__new_allocatorISt6vectorIxSaIxEEE10deallocateEPS2_m, symObjAddr: 0x8104, symBinAddr: 0x10000CE10, symSize: 0x3C }
  - { offsetInCU: 0x3DD90, offset: 0x3DD90, size: 0x8, addend: 0x0, symName: __ZNSt15__new_allocatorIxE10deallocateEPxm, symObjAddr: 0x80B4, symBinAddr: 0x10000CDC0, symSize: 0x30 }
  - { offsetInCU: 0x3DD98, offset: 0x3DD98, size: 0x8, addend: 0x0, symName: __ZSt8_DestroyIxEvPT_, symObjAddr: 0x80E4, symBinAddr: 0x10000CDF0, symSize: 0x20 }
  - { offsetInCU: 0x3DDDB, offset: 0x3DDDB, size: 0x8, addend: 0x0, symName: __ZN9__gnu_cxx17__normal_iteratorIPSt4pairIxxESt6vectorIS2_SaIS2_EEEpLEl, symObjAddr: 0x8080, symBinAddr: 0x10000CD8C, symSize: 0x34 }
  - { offsetInCU: 0x3DDE3, offset: 0x3DDE3, size: 0x8, addend: 0x0, symName: __ZNSt15__new_allocatorIxE10deallocateEPxm, symObjAddr: 0x80B4, symBinAddr: 0x10000CDC0, symSize: 0x30 }
  - { offsetInCU: 0x3DE17, offset: 0x3DE17, size: 0x8, addend: 0x0, symName: __ZN9__gnu_cxx17__normal_iteratorIPSt4pairIxxESt6vectorIS2_SaIS2_EEEmmEv, symObjAddr: 0x8058, symBinAddr: 0x10000CD64, symSize: 0x28 }
  - { offsetInCU: 0x3DE1F, offset: 0x3DE1F, size: 0x8, addend: 0x0, symName: __ZN9__gnu_cxx17__normal_iteratorIPSt4pairIxxESt6vectorIS2_SaIS2_EEEpLEl, symObjAddr: 0x8080, symBinAddr: 0x10000CD8C, symSize: 0x34 }
  - { offsetInCU: 0x3DE3E, offset: 0x3DE3E, size: 0x8, addend: 0x0, symName: __ZSt14__relocate_a_1IxxENSt9enable_ifIXsrSt24__is_bitwise_relocatableIT_vE5valueEPS2_E4typeES4_S4_S4_RSaIT0_E, symObjAddr: 0x7FA4, symBinAddr: 0x10000CCB0, symSize: 0xB4 }
  - { offsetInCU: 0x3DE46, offset: 0x3DE46, size: 0x8, addend: 0x0, symName: __ZN9__gnu_cxx17__normal_iteratorIPSt4pairIxxESt6vectorIS2_SaIS2_EEEmmEv, symObjAddr: 0x8058, symBinAddr: 0x10000CD64, symSize: 0x28 }
  - { offsetInCU: 0x3DF39, offset: 0x3DF39, size: 0x8, addend: 0x0, symName: __ZN9__gnu_cxx17__normal_iteratorIPxvEC1ERKS1_, symObjAddr: 0x7F7C, symBinAddr: 0x10000CC88, symSize: 0x28 }
  - { offsetInCU: 0x3DF41, offset: 0x3DF41, size: 0x8, addend: 0x0, symName: __ZSt14__relocate_a_1IxxENSt9enable_ifIXsrSt24__is_bitwise_relocatableIT_vE5valueEPS2_E4typeES4_S4_S4_RSaIT0_E, symObjAddr: 0x7FA4, symBinAddr: 0x10000CCB0, symSize: 0xB4 }
  - { offsetInCU: 0x3DF5E, offset: 0x3DF5E, size: 0x8, addend: 0x0, symName: __ZNSt22__uninitialized_fill_nILb1EE15__uninit_fill_nIPxmxEET_S3_T0_RKT1_, symObjAddr: 0x7F50, symBinAddr: 0x10000CC5C, symSize: 0x2C }
  - { offsetInCU: 0x3DF66, offset: 0x3DF66, size: 0x8, addend: 0x0, symName: __ZN9__gnu_cxx17__normal_iteratorIPxvEC1ERKS1_, symObjAddr: 0x7F7C, symBinAddr: 0x10000CC88, symSize: 0x28 }
  - { offsetInCU: 0x3DFC5, offset: 0x3DFC5, size: 0x8, addend: 0x0, symName: __ZSt10_ConstructIxJRKxEEvPT_DpOT0_, symObjAddr: 0x7EE0, symBinAddr: 0x10000CBEC, symSize: 0x70 }
  - { offsetInCU: 0x3DFCD, offset: 0x3DFCD, size: 0x8, addend: 0x0, symName: __ZNSt22__uninitialized_fill_nILb1EE15__uninit_fill_nIPxmxEET_S3_T0_RKT1_, symObjAddr: 0x7F50, symBinAddr: 0x10000CC5C, symSize: 0x2C }
  - { offsetInCU: 0x3E011, offset: 0x3E011, size: 0x8, addend: 0x0, symName: __ZSt9__fill_a1IPxxEN9__gnu_cxx11__enable_ifIXsrSt11__is_scalarIT0_E7__valueEvE6__typeET_S8_RKS4_, symObjAddr: 0x7E88, symBinAddr: 0x10000CB94, symSize: 0x58 }
  - { offsetInCU: 0x3E019, offset: 0x3E019, size: 0x8, addend: 0x0, symName: __ZSt10_ConstructIxJRKxEEvPT_DpOT0_, symObjAddr: 0x7EE0, symBinAddr: 0x10000CBEC, symSize: 0x70 }
  - { offsetInCU: 0x3E080, offset: 0x3E080, size: 0x8, addend: 0x0, symName: __ZSt12__niter_wrapIPxET_RKS1_S1_, symObjAddr: 0x7E70, symBinAddr: 0x10000CB7C, symSize: 0x18 }
  - { offsetInCU: 0x3E088, offset: 0x3E088, size: 0x8, addend: 0x0, symName: __ZSt9__fill_a1IPxxEN9__gnu_cxx11__enable_ifIXsrSt11__is_scalarIT0_E7__valueEvE6__typeET_S8_RKS4_, symObjAddr: 0x7E88, symBinAddr: 0x10000CB94, symSize: 0x58 }
  - { offsetInCU: 0x3E0BC, offset: 0x3E0BC, size: 0x8, addend: 0x0, symName: __ZSt23__copy_move_backward_a1ILb1EPxS0_ET1_T0_S2_S1_, symObjAddr: 0x7E44, symBinAddr: 0x10000CB50, symSize: 0x2C }
  - { offsetInCU: 0x3E0C4, offset: 0x3E0C4, size: 0x8, addend: 0x0, symName: __ZSt12__niter_wrapIPxET_RKS1_S1_, symObjAddr: 0x7E70, symBinAddr: 0x10000CB7C, symSize: 0x18 }
  - { offsetInCU: 0x3E124, offset: 0x3E124, size: 0x8, addend: 0x0, symName: __ZSt12__niter_baseIPxET_S1_, symObjAddr: 0x7E30, symBinAddr: 0x10000CB3C, symSize: 0x14 }
  - { offsetInCU: 0x3E12C, offset: 0x3E12C, size: 0x8, addend: 0x0, symName: __ZSt23__copy_move_backward_a1ILb1EPxS0_ET1_T0_S2_S1_, symObjAddr: 0x7E44, symBinAddr: 0x10000CB50, symSize: 0x2C }
  - { offsetInCU: 0x3E157, offset: 0x3E157, size: 0x8, addend: 0x0, symName: __ZSt18uninitialized_copyISt13move_iteratorIPxES1_ET0_T_S4_S3_, symObjAddr: 0x7DF4, symBinAddr: 0x10000CB00, symSize: 0x3C }
  - { offsetInCU: 0x3E15F, offset: 0x3E15F, size: 0x8, addend: 0x0, symName: __ZSt12__niter_baseIPxET_S1_, symObjAddr: 0x7E30, symBinAddr: 0x10000CB3C, symSize: 0x14 }
  - { offsetInCU: 0x3E1D2, offset: 0x3E1D2, size: 0x8, addend: 0x0, symName: __ZSt16__do_uninit_copyISt13move_iteratorIPxES1_ET0_T_S4_S3_, symObjAddr: 0x7D68, symBinAddr: 0x10000CA74, symSize: 0x8C }
  - { offsetInCU: 0x3E1DA, offset: 0x3E1DA, size: 0x8, addend: 0x0, symName: __ZSt18uninitialized_copyISt13move_iteratorIPxES1_ET0_T_S4_S3_, symObjAddr: 0x7DF4, symBinAddr: 0x10000CB00, symSize: 0x3C }
  - { offsetInCU: 0x3E241, offset: 0x3E241, size: 0x8, addend: 0x0, symName: __ZNKRSt13move_iteratorIPxE4baseEv, symObjAddr: 0x7D54, symBinAddr: 0x10000CA60, symSize: 0x14 }
  - { offsetInCU: 0x3E249, offset: 0x3E249, size: 0x8, addend: 0x0, symName: __ZSt16__do_uninit_copyISt13move_iteratorIPxES1_ET0_T_S4_S3_, symObjAddr: 0x7D68, symBinAddr: 0x10000CA74, symSize: 0x8C }
  - { offsetInCU: 0x3E26F, offset: 0x3E26F, size: 0x8, addend: 0x0, symName: __ZSteqIPxEbRKSt13move_iteratorIT_ES5_, symObjAddr: 0x7D10, symBinAddr: 0x10000CA1C, symSize: 0x44 }
  - { offsetInCU: 0x3E277, offset: 0x3E277, size: 0x8, addend: 0x0, symName: __ZNKRSt13move_iteratorIPxE4baseEv, symObjAddr: 0x7D54, symBinAddr: 0x10000CA60, symSize: 0x14 }
  - { offsetInCU: 0x3E2FB, offset: 0x3E2FB, size: 0x8, addend: 0x0, symName: __ZNSt13move_iteratorIPxEC1ES0_, symObjAddr: 0x7CE0, symBinAddr: 0x10000C9EC, symSize: 0x30 }
  - { offsetInCU: 0x3E303, offset: 0x3E303, size: 0x8, addend: 0x0, symName: __ZSteqIPxEbRKSt13move_iteratorIT_ES5_, symObjAddr: 0x7D10, symBinAddr: 0x10000CA1C, symSize: 0x44 }
  - { offsetInCU: 0x3E312, offset: 0x3E312, size: 0x8, addend: 0x0, symName: __ZSt4moveIRPxEONSt16remove_referenceIT_E4typeEOS3_, symObjAddr: 0x7CCC, symBinAddr: 0x10000C9D8, symSize: 0x14 }
  - { offsetInCU: 0x3E31A, offset: 0x3E31A, size: 0x8, addend: 0x0, symName: __ZNSt13move_iteratorIPxEC1ES0_, symObjAddr: 0x7CE0, symBinAddr: 0x10000C9EC, symSize: 0x30 }
  - { offsetInCU: 0x3E344, offset: 0x3E344, size: 0x8, addend: 0x0, symName: __ZSt11__addressofIxEPT_RS0_, symObjAddr: 0x7CB8, symBinAddr: 0x10000C9C4, symSize: 0x14 }
  - { offsetInCU: 0x3E34C, offset: 0x3E34C, size: 0x8, addend: 0x0, symName: __ZSt4moveIRPxEONSt16remove_referenceIT_E4typeEOS3_, symObjAddr: 0x7CCC, symBinAddr: 0x10000C9D8, symSize: 0x14 }
  - { offsetInCU: 0x3E376, offset: 0x3E376, size: 0x8, addend: 0x0, symName: __ZNSt12_Destroy_auxILb1EE9__destroyIPiEEvT_S3_, symObjAddr: 0x7CA0, symBinAddr: 0x10000C9AC, symSize: 0x18 }
  - { offsetInCU: 0x3E37E, offset: 0x3E37E, size: 0x8, addend: 0x0, symName: __ZSt11__addressofIxEPT_RS0_, symObjAddr: 0x7CB8, symBinAddr: 0x10000C9C4, symSize: 0x14 }
  - { offsetInCU: 0x3E3AA, offset: 0x3E3AA, size: 0x8, addend: 0x0, symName: __ZNSt12_Destroy_auxILb0EE9__destroyIPiEEvT_S3_, symObjAddr: 0x7C54, symBinAddr: 0x10000C960, symSize: 0x4C }
  - { offsetInCU: 0x3E3B2, offset: 0x3E3B2, size: 0x8, addend: 0x0, symName: __ZNSt12_Destroy_auxILb1EE9__destroyIPiEEvT_S3_, symObjAddr: 0x7CA0, symBinAddr: 0x10000C9AC, symSize: 0x18 }
  - { offsetInCU: 0x3E3EC, offset: 0x3E3EC, size: 0x8, addend: 0x0, symName: __ZSt14__relocate_a_1IiiENSt9enable_ifIXsrSt24__is_bitwise_relocatableIT_vE5valueEPS2_E4typeES4_S4_S4_RSaIT0_E, symObjAddr: 0x7BA0, symBinAddr: 0x10000C8AC, symSize: 0xB4 }
  - { offsetInCU: 0x3E3F4, offset: 0x3E3F4, size: 0x8, addend: 0x0, symName: __ZNSt12_Destroy_auxILb0EE9__destroyIPiEEvT_S3_, symObjAddr: 0x7C54, symBinAddr: 0x10000C960, symSize: 0x4C }
  - { offsetInCU: 0x3E4E7, offset: 0x3E4E7, size: 0x8, addend: 0x0, symName: __ZN9__gnu_cxx17__normal_iteratorIPivEC1ERKS1_, symObjAddr: 0x7B78, symBinAddr: 0x10000C884, symSize: 0x28 }
  - { offsetInCU: 0x3E4EF, offset: 0x3E4EF, size: 0x8, addend: 0x0, symName: __ZSt14__relocate_a_1IiiENSt9enable_ifIXsrSt24__is_bitwise_relocatableIT_vE5valueEPS2_E4typeES4_S4_S4_RSaIT0_E, symObjAddr: 0x7BA0, symBinAddr: 0x10000C8AC, symSize: 0xB4 }
  - { offsetInCU: 0x3E4E8, offset: 0x3E4E8, size: 0x8, addend: 0x0, symName: __ZSt12__niter_baseIPiET_S1_, symObjAddr: 0x7B64, symBinAddr: 0x10000C870, symSize: 0x14 }
  - { offsetInCU: 0x3E4F0, offset: 0x3E4F0, size: 0x8, addend: 0x0, symName: __ZN9__gnu_cxx17__normal_iteratorIPivEC1ERKS1_, symObjAddr: 0x7B78, symBinAddr: 0x10000C884, symSize: 0x28 }
  - { offsetInCU: 0x3E570, offset: 0x3E570, size: 0x8, addend: 0x0, symName: __ZNSt27__uninitialized_default_n_1ILb1EE18__uninit_default_nIPimEET_S3_T0_, symObjAddr: 0x7B00, symBinAddr: 0x10000C80C, symSize: 0x64 }
  - { offsetInCU: 0x3E578, offset: 0x3E578, size: 0x8, addend: 0x0, symName: __ZSt12__niter_baseIPiET_S1_, symObjAddr: 0x7B64, symBinAddr: 0x10000C870, symSize: 0x14 }
  - { offsetInCU: 0x3E5E7, offset: 0x3E5E7, size: 0x8, addend: 0x0, symName: __ZNSt27__uninitialized_default_n_1ILb0EE18__uninit_default_nIPimEET_S3_T0_, symObjAddr: 0x7AA8, symBinAddr: 0x10000C7B4, symSize: 0x58 }
  - { offsetInCU: 0x3E5EF, offset: 0x3E5EF, size: 0x8, addend: 0x0, symName: __ZNSt27__uninitialized_default_n_1ILb1EE18__uninit_default_nIPimEET_S3_T0_, symObjAddr: 0x7B00, symBinAddr: 0x10000C80C, symSize: 0x64 }
  - { offsetInCU: 0x3E645, offset: 0x3E645, size: 0x8, addend: 0x0, symName: __ZSt12__niter_wrapIN9__gnu_cxx17__normal_iteratorIPSt4pairIxxESt6vectorIS3_SaIS3_EEEES4_ET_S9_T0_, symObjAddr: 0x7A6C, symBinAddr: 0x10000C778, symSize: 0x3C }
  - { offsetInCU: 0x3E64D, offset: 0x3E64D, size: 0x8, addend: 0x0, symName: __ZNSt27__uninitialized_default_n_1ILb0EE18__uninit_default_nIPimEET_S3_T0_, symObjAddr: 0x7AA8, symBinAddr: 0x10000C7B4, symSize: 0x58 }
  - { offsetInCU: 0x3E692, offset: 0x3E692, size: 0x8, addend: 0x0, symName: __ZSt14__copy_move_a1ILb0EPSt4pairIxxES2_ET1_T0_S4_S3_, symObjAddr: 0x7A40, symBinAddr: 0x10000C74C, symSize: 0x2C }
  - { offsetInCU: 0x3E69A, offset: 0x3E69A, size: 0x8, addend: 0x0, symName: __ZSt12__niter_wrapIN9__gnu_cxx17__normal_iteratorIPSt4pairIxxESt6vectorIS3_SaIS3_EEEES4_ET_S9_T0_, symObjAddr: 0x7A6C, symBinAddr: 0x10000C778, symSize: 0x3C }
  - { offsetInCU: 0x3E6FA, offset: 0x3E6FA, size: 0x8, addend: 0x0, symName: __ZSt12__niter_baseIPSt4pairIxxESt6vectorIS1_SaIS1_EEET_N9__gnu_cxx17__normal_iteratorIS6_T0_EE, symObjAddr: 0x7A20, symBinAddr: 0x10000C72C, symSize: 0x20 }
  - { offsetInCU: 0x3E702, offset: 0x3E702, size: 0x8, addend: 0x0, symName: __ZSt14__copy_move_a1ILb0EPSt4pairIxxES2_ET1_T0_S4_S3_, symObjAddr: 0x7A40, symBinAddr: 0x10000C74C, symSize: 0x2C }
  - { offsetInCU: 0x3E736, offset: 0x3E736, size: 0x8, addend: 0x0, symName: __ZNSt27__uninitialized_default_n_1ILb0EE18__uninit_default_nIPSt4pairIxxEmEET_S5_T0_, symObjAddr: 0x7998, symBinAddr: 0x10000C6A4, symSize: 0x88 }
  - { offsetInCU: 0x3E73E, offset: 0x3E73E, size: 0x8, addend: 0x0, symName: __ZSt12__niter_baseIPSt4pairIxxESt6vectorIS1_SaIS1_EEET_N9__gnu_cxx17__normal_iteratorIS6_T0_EE, symObjAddr: 0x7A20, symBinAddr: 0x10000C72C, symSize: 0x20 }
  - { offsetInCU: 0x3E794, offset: 0x3E794, size: 0x8, addend: 0x0, symName: __ZSt25__unguarded_linear_insertIN9__gnu_cxx17__normal_iteratorIPSt4pairIxxESt6vectorIS3_SaIS3_EEEENS0_5__ops14_Val_less_iterEEvT_T0_, symObjAddr: 0x78E0, symBinAddr: 0x10000C5EC, symSize: 0xB8 }
  - { offsetInCU: 0x3E79C, offset: 0x3E79C, size: 0x8, addend: 0x0, symName: __ZNSt27__uninitialized_default_n_1ILb0EE18__uninit_default_nIPSt4pairIxxEmEET_S5_T0_, symObjAddr: 0x7998, symBinAddr: 0x10000C6A4, symSize: 0x88 }
  - { offsetInCU: 0x3E807, offset: 0x3E807, size: 0x8, addend: 0x0, symName: __ZNSt4pairIxxEaSEOS0_, symObjAddr: 0x7898, symBinAddr: 0x10000C5A4, symSize: 0x48 }
  - { offsetInCU: 0x3E80F, offset: 0x3E80F, size: 0x8, addend: 0x0, symName: __ZSt25__unguarded_linear_insertIN9__gnu_cxx17__normal_iteratorIPSt4pairIxxESt6vectorIS3_SaIS3_EEEENS0_5__ops14_Val_less_iterEEvT_T0_, symObjAddr: 0x78E0, symBinAddr: 0x10000C5EC, symSize: 0xB8 }
  - { offsetInCU: 0x3E83F, offset: 0x3E83F, size: 0x8, addend: 0x0, symName: __ZSt13move_backwardIN9__gnu_cxx17__normal_iteratorIPSt4pairIxxESt6vectorIS3_SaIS3_EEEES8_ET0_T_SA_S9_, symObjAddr: 0x7850, symBinAddr: 0x10000C55C, symSize: 0x48 }
  - { offsetInCU: 0x3E847, offset: 0x3E847, size: 0x8, addend: 0x0, symName: __ZNSt4pairIxxEaSEOS0_, symObjAddr: 0x7898, symBinAddr: 0x10000C5A4, symSize: 0x48 }
  - { offsetInCU: 0x3E8A4, offset: 0x3E8A4, size: 0x8, addend: 0x0, symName: __ZSt4moveIRSt4pairIxxEEONSt16remove_referenceIT_E4typeEOS4_, symObjAddr: 0x783C, symBinAddr: 0x10000C548, symSize: 0x14 }
  - { offsetInCU: 0x3E8AC, offset: 0x3E8AC, size: 0x8, addend: 0x0, symName: __ZSt13move_backwardIN9__gnu_cxx17__normal_iteratorIPSt4pairIxxESt6vectorIS3_SaIS3_EEEES8_ET0_T_SA_S9_, symObjAddr: 0x7850, symBinAddr: 0x10000C55C, symSize: 0x48 }
  - { offsetInCU: 0x3E8D6, offset: 0x3E8D6, size: 0x8, addend: 0x0, symName: __ZSt21__unguarded_partitionIN9__gnu_cxx17__normal_iteratorIPSt4pairIxxESt6vectorIS3_SaIS3_EEEENS0_5__ops15_Iter_less_iterEET_SB_SB_SB_T0_, symObjAddr: 0x7754, symBinAddr: 0x10000C460, symSize: 0xE8 }
  - { offsetInCU: 0x3E8DE, offset: 0x3E8DE, size: 0x8, addend: 0x0, symName: __ZSt4moveIRSt4pairIxxEEONSt16remove_referenceIT_E4typeEOS4_, symObjAddr: 0x783C, symBinAddr: 0x10000C548, symSize: 0x14 }
  - { offsetInCU: 0x3E945, offset: 0x3E945, size: 0x8, addend: 0x0, symName: __ZSt22__move_median_to_firstIN9__gnu_cxx17__normal_iteratorIPSt4pairIxxESt6vectorIS3_SaIS3_EEEENS0_5__ops15_Iter_less_iterEEvT_SB_SB_SB_T0_, symObjAddr: 0x7630, symBinAddr: 0x10000C33C, symSize: 0x124 }
  - { offsetInCU: 0x3E94D, offset: 0x3E94D, size: 0x8, addend: 0x0, symName: __ZSt21__unguarded_partitionIN9__gnu_cxx17__normal_iteratorIPSt4pairIxxESt6vectorIS3_SaIS3_EEEENS0_5__ops15_Iter_less_iterEET_SB_SB_SB_T0_, symObjAddr: 0x7754, symBinAddr: 0x10000C460, symSize: 0xE8 }
  - { offsetInCU: 0x3E9C0, offset: 0x3E9C0, size: 0x8, addend: 0x0, symName: __ZSt11__sort_heapIN9__gnu_cxx17__normal_iteratorIPSt4pairIxxESt6vectorIS3_SaIS3_EEEENS0_5__ops15_Iter_less_iterEEvT_SB_RT0_, symObjAddr: 0x75C8, symBinAddr: 0x10000C2D4, symSize: 0x68 }
  - { offsetInCU: 0x3E9C8, offset: 0x3E9C8, size: 0x8, addend: 0x0, symName: __ZSt22__move_median_to_firstIN9__gnu_cxx17__normal_iteratorIPSt4pairIxxESt6vectorIS3_SaIS3_EEEENS0_5__ops15_Iter_less_iterEEvT_SB_SB_SB_T0_, symObjAddr: 0x7630, symBinAddr: 0x10000C33C, symSize: 0x124 }
  - { offsetInCU: 0x3EA1E, offset: 0x3EA1E, size: 0x8, addend: 0x0, symName: __ZSt13__heap_selectIN9__gnu_cxx17__normal_iteratorIPSt4pairIxxESt6vectorIS3_SaIS3_EEEENS0_5__ops15_Iter_less_iterEEvT_SB_SB_T0_, symObjAddr: 0x7500, symBinAddr: 0x10000C20C, symSize: 0xC8 }
  - { offsetInCU: 0x3EA26, offset: 0x3EA26, size: 0x8, addend: 0x0, symName: __ZSt11__sort_heapIN9__gnu_cxx17__normal_iteratorIPSt4pairIxxESt6vectorIS3_SaIS3_EEEENS0_5__ops15_Iter_less_iterEEvT_SB_RT0_, symObjAddr: 0x75C8, symBinAddr: 0x10000C2D4, symSize: 0x68 }
  - { offsetInCU: 0x3EAB8, offset: 0x3EAB8, size: 0x8, addend: 0x0, symName: __ZN9__gnu_cxxssIPSt4pairIxxESt6vectorIS2_SaIS2_EEEEDTclL_ZNSt8__detail11__synth3wayEEcl7declvalIRT_EEcl7declvalIS9_EEEERKNS_17__normal_iteratorIS8_T0_EESF_, symObjAddr: 0x74B8, symBinAddr: 0x10000C1C4, symSize: 0x48 }
  - { offsetInCU: 0x3EAC0, offset: 0x3EAC0, size: 0x8, addend: 0x0, symName: __ZSt13__heap_selectIN9__gnu_cxx17__normal_iteratorIPSt4pairIxxESt6vectorIS3_SaIS3_EEEENS0_5__ops15_Iter_less_iterEEvT_SB_SB_T0_, symObjAddr: 0x7500, symBinAddr: 0x10000C20C, symSize: 0xC8 }
  - { offsetInCU: 0x3EB09, offset: 0x3EB09, size: 0x8, addend: 0x0, symName: __ZNKSt8__detail10_Synth3wayclIPSt4pairIxxES4_EEDaRKT_RKT0_, symObjAddr: 0x745C, symBinAddr: 0x10000C168, symSize: 0x5C }
  - { offsetInCU: 0x3EB11, offset: 0x3EB11, size: 0x8, addend: 0x0, symName: __ZN9__gnu_cxxssIPSt4pairIxxESt6vectorIS2_SaIS2_EEEEDTclL_ZNSt8__detail11__synth3wayEEcl7declvalIRT_EEcl7declvalIS9_EEEERKNS_17__normal_iteratorIS8_T0_EESF_, symObjAddr: 0x74B8, symBinAddr: 0x10000C1C4, symSize: 0x48 }
  - { offsetInCU: 0x3EB95, offset: 0x3EB95, size: 0x8, addend: 0x0, symName: __ZNSt12_Destroy_auxILb1EE9__destroyIPSt4pairIxxEEEvT_S5_, symObjAddr: 0x7444, symBinAddr: 0x10000C150, symSize: 0x18 }
  - { offsetInCU: 0x3EB9D, offset: 0x3EB9D, size: 0x8, addend: 0x0, symName: __ZNKSt8__detail10_Synth3wayclIPSt4pairIxxES4_EEDaRKT_RKT0_, symObjAddr: 0x745C, symBinAddr: 0x10000C168, symSize: 0x5C }
  - { offsetInCU: 0x3EBC9, offset: 0x3EBC9, size: 0x8, addend: 0x0, symName: __ZNSt12_Destroy_auxILb0EE9__destroyIPSt4pairIxxEEEvT_S5_, symObjAddr: 0x73F8, symBinAddr: 0x10000C104, symSize: 0x4C }
  - { offsetInCU: 0x3EBD1, offset: 0x3EBD1, size: 0x8, addend: 0x0, symName: __ZNSt12_Destroy_auxILb1EE9__destroyIPSt4pairIxxEEEvT_S5_, symObjAddr: 0x7444, symBinAddr: 0x10000C150, symSize: 0x18 }
  - { offsetInCU: 0x3EC0B, offset: 0x3EC0B, size: 0x8, addend: 0x0, symName: __ZSt14__relocate_a_1IPSt4pairIxxES2_SaIS1_EET0_T_S5_S4_RT1_, symObjAddr: 0x7374, symBinAddr: 0x10000C080, symSize: 0x84 }
  - { offsetInCU: 0x3EC13, offset: 0x3EC13, size: 0x8, addend: 0x0, symName: __ZNSt12_Destroy_auxILb0EE9__destroyIPSt4pairIxxEEEvT_S5_, symObjAddr: 0x73F8, symBinAddr: 0x10000C104, symSize: 0x4C }
  - { offsetInCU: 0x3EC94, offset: 0x3EC94, size: 0x8, addend: 0x0, symName: __ZSt12__niter_baseIPSt4pairIxxEET_S3_, symObjAddr: 0x7360, symBinAddr: 0x10000C06C, symSize: 0x14 }
  - { offsetInCU: 0x3EC9C, offset: 0x3EC9C, size: 0x8, addend: 0x0, symName: __ZSt14__relocate_a_1IPSt4pairIxxES2_SaIS1_EET0_T_S5_S4_RT1_, symObjAddr: 0x7374, symBinAddr: 0x10000C080, symSize: 0x84 }
  - { offsetInCU: 0x3ECEB, offset: 0x3ECEB, size: 0x8, addend: 0x0, symName: __ZSt9__advanceIN9__gnu_cxx17__normal_iteratorIPxSt6vectorIxSaIxEEEElEvRT_T0_St26random_access_iterator_tag, symObjAddr: 0x7334, symBinAddr: 0x10000C040, symSize: 0x2C }
  - { offsetInCU: 0x3ECF3, offset: 0x3ECF3, size: 0x8, addend: 0x0, symName: __ZSt12__niter_baseIPSt4pairIxxEET_S3_, symObjAddr: 0x7360, symBinAddr: 0x10000C06C, symSize: 0x14 }
  - { offsetInCU: 0x3ED85, offset: 0x3ED85, size: 0x8, addend: 0x0, symName: __ZSt14__relocate_a_1IPSt6vectorIiSaIiEES3_SaIS2_EET0_T_S6_S5_RT1_, symObjAddr: 0x72B0, symBinAddr: 0x10000BFBC, symSize: 0x84 }
  - { offsetInCU: 0x3ED8D, offset: 0x3ED8D, size: 0x8, addend: 0x0, symName: __ZSt9__advanceIN9__gnu_cxx17__normal_iteratorIPxSt6vectorIxSaIxEEEElEvRT_T0_St26random_access_iterator_tag, symObjAddr: 0x7334, symBinAddr: 0x10000C040, symSize: 0x2C }
  - { offsetInCU: 0x3EE0E, offset: 0x3EE0E, size: 0x8, addend: 0x0, symName: __ZSt12__niter_baseIPSt6vectorIiSaIiEEET_S4_, symObjAddr: 0x729C, symBinAddr: 0x10000BFA8, symSize: 0x14 }
  - { offsetInCU: 0x3EE16, offset: 0x3EE16, size: 0x8, addend: 0x0, symName: __ZSt14__relocate_a_1IPSt6vectorIiSaIiEES3_SaIS2_EET0_T_S6_S5_RT1_, symObjAddr: 0x72B0, symBinAddr: 0x10000BFBC, symSize: 0x84 }
  - { offsetInCU: 0x3EE65, offset: 0x3EE65, size: 0x8, addend: 0x0, symName: __ZNSt27__uninitialized_default_n_1ILb0EE18__uninit_default_nIPSt6vectorIiSaIiEEmEET_S6_T0_, symObjAddr: 0x7244, symBinAddr: 0x10000BF50, symSize: 0x58 }
  - { offsetInCU: 0x3EE6D, offset: 0x3EE6D, size: 0x8, addend: 0x0, symName: __ZSt12__niter_baseIPSt6vectorIiSaIiEEET_S4_, symObjAddr: 0x729C, symBinAddr: 0x10000BFA8, symSize: 0x14 }
  - { offsetInCU: 0x3EEC3, offset: 0x3EEC3, size: 0x8, addend: 0x0, symName: __ZSt14__relocate_a_1IPSt6vectorIxSaIxEES3_SaIS2_EET0_T_S6_S5_RT1_, symObjAddr: 0x71C0, symBinAddr: 0x10000BECC, symSize: 0x84 }
  - { offsetInCU: 0x3EECB, offset: 0x3EECB, size: 0x8, addend: 0x0, symName: __ZNSt27__uninitialized_default_n_1ILb0EE18__uninit_default_nIPSt6vectorIiSaIiEEmEET_S6_T0_, symObjAddr: 0x7244, symBinAddr: 0x10000BF50, symSize: 0x58 }
  - { offsetInCU: 0x3EF4C, offset: 0x3EF4C, size: 0x8, addend: 0x0, symName: __ZSt12__niter_baseIPSt6vectorIxSaIxEEET_S4_, symObjAddr: 0x71AC, symBinAddr: 0x10000BEB8, symSize: 0x14 }
  - { offsetInCU: 0x3EF54, offset: 0x3EF54, size: 0x8, addend: 0x0, symName: __ZSt14__relocate_a_1IPSt6vectorIxSaIxEES3_SaIS2_EET0_T_S6_S5_RT1_, symObjAddr: 0x71C0, symBinAddr: 0x10000BECC, symSize: 0x84 }
  - { offsetInCU: 0x3EFA3, offset: 0x3EFA3, size: 0x8, addend: 0x0, symName: __ZNSt27__uninitialized_default_n_1ILb0EE18__uninit_default_nIPSt6vectorIxSaIxEEmEET_S6_T0_, symObjAddr: 0x7154, symBinAddr: 0x10000BE60, symSize: 0x58 }
  - { offsetInCU: 0x3EFAB, offset: 0x3EFAB, size: 0x8, addend: 0x0, symName: __ZSt12__niter_baseIPSt6vectorIxSaIxEEET_S4_, symObjAddr: 0x71AC, symBinAddr: 0x10000BEB8, symSize: 0x14 }
  - { offsetInCU: 0x3F001, offset: 0x3F001, size: 0x8, addend: 0x0, symName: __ZSt14__relocate_a_1IPSt6vectorISt4pairIxxESaIS2_EES5_SaIS4_EET0_T_S8_S7_RT1_, symObjAddr: 0x70D0, symBinAddr: 0x10000BDDC, symSize: 0x84 }
  - { offsetInCU: 0x3F009, offset: 0x3F009, size: 0x8, addend: 0x0, symName: __ZNSt27__uninitialized_default_n_1ILb0EE18__uninit_default_nIPSt6vectorIxSaIxEEmEET_S6_T0_, symObjAddr: 0x7154, symBinAddr: 0x10000BE60, symSize: 0x58 }
  - { offsetInCU: 0x3F08A, offset: 0x3F08A, size: 0x8, addend: 0x0, symName: __ZSt12__niter_baseIPSt6vectorISt4pairIxxESaIS2_EEET_S6_, symObjAddr: 0x70BC, symBinAddr: 0x10000BDC8, symSize: 0x14 }
  - { offsetInCU: 0x3F092, offset: 0x3F092, size: 0x8, addend: 0x0, symName: __ZSt14__relocate_a_1IPSt6vectorISt4pairIxxESaIS2_EES5_SaIS4_EET0_T_S8_S7_RT1_, symObjAddr: 0x70D0, symBinAddr: 0x10000BDDC, symSize: 0x84 }
  - { offsetInCU: 0x3F0E1, offset: 0x3F0E1, size: 0x8, addend: 0x0, symName: __ZNSt27__uninitialized_default_n_1ILb0EE18__uninit_default_nIPSt6vectorISt4pairIxxESaIS4_EEmEET_S8_T0_, symObjAddr: 0x7064, symBinAddr: 0x10000BD70, symSize: 0x58 }
  - { offsetInCU: 0x3F0E9, offset: 0x3F0E9, size: 0x8, addend: 0x0, symName: __ZSt12__niter_baseIPSt6vectorISt4pairIxxESaIS2_EEET_S6_, symObjAddr: 0x70BC, symBinAddr: 0x10000BDC8, symSize: 0x14 }
  - { offsetInCU: 0x3F13F, offset: 0x3F13F, size: 0x8, addend: 0x0, symName: __ZSt13__copy_move_aILb1EN9__gnu_cxx17__normal_iteratorIPxSt6vectorIxSaIxEEEES6_ET1_T0_S8_S7_, symObjAddr: 0x7004, symBinAddr: 0x10000BD10, symSize: 0x60 }
  - { offsetInCU: 0x3F147, offset: 0x3F147, size: 0x8, addend: 0x0, symName: __ZNSt27__uninitialized_default_n_1ILb0EE18__uninit_default_nIPSt6vectorISt4pairIxxESaIS4_EEmEET_S8_T0_, symObjAddr: 0x7064, symBinAddr: 0x10000BD70, symSize: 0x58 }
  - { offsetInCU: 0x3F1A7, offset: 0x3F1A7, size: 0x8, addend: 0x0, symName: __ZSt12__miter_baseIN9__gnu_cxx17__normal_iteratorIPxSt6vectorIxSaIxEEEEET_S7_, symObjAddr: 0x6FF0, symBinAddr: 0x10000BCFC, symSize: 0x14 }
  - { offsetInCU: 0x3F1AF, offset: 0x3F1AF, size: 0x8, addend: 0x0, symName: __ZSt13__copy_move_aILb1EN9__gnu_cxx17__normal_iteratorIPxSt6vectorIxSaIxEEEES6_ET1_T0_S8_S7_, symObjAddr: 0x7004, symBinAddr: 0x10000BD10, symSize: 0x60 }
  - { offsetInCU: 0x3F1DA, offset: 0x3F1DA, size: 0x8, addend: 0x0, symName: __ZSt26__unguarded_insertion_sortIN9__gnu_cxx17__normal_iteratorIPxSt6vectorIxSaIxEEEENS0_5__ops15_Iter_less_iterEEvT_S9_T0_, symObjAddr: 0x6F78, symBinAddr: 0x10000BC84, symSize: 0x78 }
  - { offsetInCU: 0x3F1E2, offset: 0x3F1E2, size: 0x8, addend: 0x0, symName: __ZSt12__miter_baseIN9__gnu_cxx17__normal_iteratorIPxSt6vectorIxSaIxEEEEET_S7_, symObjAddr: 0x6FF0, symBinAddr: 0x10000BCFC, symSize: 0x14 }
  - { offsetInCU: 0x3F25C, offset: 0x3F25C, size: 0x8, addend: 0x0, symName: __ZSt16__insertion_sortIN9__gnu_cxx17__normal_iteratorIPxSt6vectorIxSaIxEEEENS0_5__ops15_Iter_less_iterEEvT_S9_T0_, symObjAddr: 0x6E68, symBinAddr: 0x10000BB74, symSize: 0x110 }
  - { offsetInCU: 0x3F264, offset: 0x3F264, size: 0x8, addend: 0x0, symName: __ZSt26__unguarded_insertion_sortIN9__gnu_cxx17__normal_iteratorIPxSt6vectorIxSaIxEEEENS0_5__ops15_Iter_less_iterEEvT_S9_T0_, symObjAddr: 0x6F78, symBinAddr: 0x10000BC84, symSize: 0x78 }
  - { offsetInCU: 0x3F302, offset: 0x3F302, size: 0x8, addend: 0x0, symName: __ZSt27__unguarded_partition_pivotIN9__gnu_cxx17__normal_iteratorIPxSt6vectorIxSaIxEEEENS0_5__ops15_Iter_less_iterEET_S9_S9_T0_, symObjAddr: 0x6DC4, symBinAddr: 0x10000BAD0, symSize: 0xA4 }
  - { offsetInCU: 0x3F30A, offset: 0x3F30A, size: 0x8, addend: 0x0, symName: __ZSt16__insertion_sortIN9__gnu_cxx17__normal_iteratorIPxSt6vectorIxSaIxEEEENS0_5__ops15_Iter_less_iterEEvT_S9_T0_, symObjAddr: 0x6E68, symBinAddr: 0x10000BB74, symSize: 0x110 }
  - { offsetInCU: 0x3F371, offset: 0x3F371, size: 0x8, addend: 0x0, symName: __ZSt14__partial_sortIN9__gnu_cxx17__normal_iteratorIPxSt6vectorIxSaIxEEEENS0_5__ops15_Iter_less_iterEEvT_S9_S9_T0_, symObjAddr: 0x6D78, symBinAddr: 0x10000BA84, symSize: 0x4C }
  - { offsetInCU: 0x3F379, offset: 0x3F379, size: 0x8, addend: 0x0, symName: __ZSt27__unguarded_partition_pivotIN9__gnu_cxx17__normal_iteratorIPxSt6vectorIxSaIxEEEENS0_5__ops15_Iter_less_iterEET_S9_S9_T0_, symObjAddr: 0x6DC4, symBinAddr: 0x10000BAD0, symSize: 0xA4 }
  - { offsetInCU: 0x3F3E0, offset: 0x3F3E0, size: 0x8, addend: 0x0, symName: __ZNSt12_Destroy_auxILb0EE9__destroyIPSt6vectorIiSaIiEEEEvT_S6_, symObjAddr: 0x6D2C, symBinAddr: 0x10000BA38, symSize: 0x4C }
  - { offsetInCU: 0x3F3E8, offset: 0x3F3E8, size: 0x8, addend: 0x0, symName: __ZSt14__partial_sortIN9__gnu_cxx17__normal_iteratorIPxSt6vectorIxSaIxEEEENS0_5__ops15_Iter_less_iterEEvT_S9_S9_T0_, symObjAddr: 0x6D78, symBinAddr: 0x10000BA84, symSize: 0x4C }
  - { offsetInCU: 0x3F453, offset: 0x3F453, size: 0x8, addend: 0x0, symName: __ZNSt12_Destroy_auxILb0EE9__destroyIPSt6vectorISt4pairIxxESaIS4_EEEEvT_S8_, symObjAddr: 0x6CE0, symBinAddr: 0x10000B9EC, symSize: 0x4C }
  - { offsetInCU: 0x3F45B, offset: 0x3F45B, size: 0x8, addend: 0x0, symName: __ZNSt12_Destroy_auxILb0EE9__destroyIPSt6vectorIiSaIiEEEEvT_S6_, symObjAddr: 0x6D2C, symBinAddr: 0x10000BA38, symSize: 0x4C }
  - { offsetInCU: 0x3F4C6, offset: 0x3F4C6, size: 0x8, addend: 0x0, symName: __ZNSt12_Destroy_auxILb0EE9__destroyIPSt6vectorIxSaIxEEEEvT_S6_, symObjAddr: 0x6C94, symBinAddr: 0x10000B9A0, symSize: 0x4C }
  - { offsetInCU: 0x3F4CE, offset: 0x3F4CE, size: 0x8, addend: 0x0, symName: __ZNSt12_Destroy_auxILb0EE9__destroyIPSt6vectorISt4pairIxxESaIS4_EEEEvT_S8_, symObjAddr: 0x6CE0, symBinAddr: 0x10000B9EC, symSize: 0x4C }
  - { offsetInCU: 0x3F539, offset: 0x3F539, size: 0x8, addend: 0x0, symName: __ZNSt12_Destroy_auxILb1EE9__destroyIPxEEvT_S3_, symObjAddr: 0x6C7C, symBinAddr: 0x10000B988, symSize: 0x18 }
  - { offsetInCU: 0x3F541, offset: 0x3F541, size: 0x8, addend: 0x0, symName: __ZNSt12_Destroy_auxILb0EE9__destroyIPSt6vectorIxSaIxEEEEvT_S6_, symObjAddr: 0x6C94, symBinAddr: 0x10000B9A0, symSize: 0x4C }
  - { offsetInCU: 0x3F56D, offset: 0x3F56D, size: 0x8, addend: 0x0, symName: __ZNSt12_Destroy_auxILb0EE9__destroyIPxEEvT_S3_, symObjAddr: 0x6C30, symBinAddr: 0x10000B93C, symSize: 0x4C }
  - { offsetInCU: 0x3F575, offset: 0x3F575, size: 0x8, addend: 0x0, symName: __ZNSt12_Destroy_auxILb1EE9__destroyIPxEEvT_S3_, symObjAddr: 0x6C7C, symBinAddr: 0x10000B988, symSize: 0x18 }
  - { offsetInCU: 0x3F5E0, offset: 0x3F5E0, size: 0x8, addend: 0x0, symName: __ZSt9__advanceIN9__gnu_cxx17__normal_iteratorIPSt4pairIxxESt6vectorIS3_SaIS3_EEEElEvRT_T0_St26random_access_iterator_tag, symObjAddr: 0x6C04, symBinAddr: 0x10000B910, symSize: 0x2C }
  - { offsetInCU: 0x3F5E8, offset: 0x3F5E8, size: 0x8, addend: 0x0, symName: __ZNSt12_Destroy_auxILb0EE9__destroyIPxEEvT_S3_, symObjAddr: 0x6C30, symBinAddr: 0x10000B93C, symSize: 0x4C }
  - { offsetInCU: 0x3F67A, offset: 0x3F67A, size: 0x8, addend: 0x0, symName: __ZSt10destroy_atIxEvPT_, symObjAddr: 0x6BF0, symBinAddr: 0x10000B8FC, symSize: 0x14 }
  - { offsetInCU: 0x3F682, offset: 0x3F682, size: 0x8, addend: 0x0, symName: __ZSt9__advanceIN9__gnu_cxx17__normal_iteratorIPSt4pairIxxESt6vectorIS3_SaIS3_EEEElEvRT_T0_St26random_access_iterator_tag, symObjAddr: 0x6C04, symBinAddr: 0x10000B910, symSize: 0x2C }
  - { offsetInCU: 0x3F6AC, offset: 0x3F6AC, size: 0x8, addend: 0x0, symName: __ZSt12__relocate_aIPxS0_SaIxEET0_T_S3_S2_RT1_, symObjAddr: 0x6B94, symBinAddr: 0x10000B8A0, symSize: 0x5C }
  - { offsetInCU: 0x3F6B4, offset: 0x3F6B4, size: 0x8, addend: 0x0, symName: __ZSt10destroy_atIxEvPT_, symObjAddr: 0x6BF0, symBinAddr: 0x10000B8FC, symSize: 0x14 }
  - { offsetInCU: 0x3F724, offset: 0x3F724, size: 0x8, addend: 0x0, symName: __ZSt32__make_move_if_noexcept_iteratorIxSt13move_iteratorIPxEET0_PT_, symObjAddr: 0x6B70, symBinAddr: 0x10000B87C, symSize: 0x24 }
  - { offsetInCU: 0x3F72C, offset: 0x3F72C, size: 0x8, addend: 0x0, symName: __ZSt12__relocate_aIPxS0_SaIxEET0_T_S3_S2_RT1_, symObjAddr: 0x6B94, symBinAddr: 0x10000B8A0, symSize: 0x5C }
  - { offsetInCU: 0x3F789, offset: 0x3F789, size: 0x8, addend: 0x0, symName: __ZNKSt12_Vector_baseIxSaIxEE19_M_get_Tp_allocatorEv, symObjAddr: 0x6B5C, symBinAddr: 0x10000B868, symSize: 0x14 }
  - { offsetInCU: 0x3F791, offset: 0x3F791, size: 0x8, addend: 0x0, symName: __ZSt32__make_move_if_noexcept_iteratorIxSt13move_iteratorIPxEET0_PT_, symObjAddr: 0x6B70, symBinAddr: 0x10000B87C, symSize: 0x24 }
  - { offsetInCU: 0x3F7B0, offset: 0x3F7B0, size: 0x8, addend: 0x0, symName: __ZNSt6vectorIxSaIxEE11_S_max_sizeERKS0_, symObjAddr: 0x6B20, symBinAddr: 0x10000B82C, symSize: 0x3C }
  - { offsetInCU: 0x3F7B8, offset: 0x3F7B8, size: 0x8, addend: 0x0, symName: __ZNKSt12_Vector_baseIxSaIxEE19_M_get_Tp_allocatorEv, symObjAddr: 0x6B5C, symBinAddr: 0x10000B868, symSize: 0x14 }
  - { offsetInCU: 0x3F836, offset: 0x3F836, size: 0x8, addend: 0x0, symName: __ZSt20uninitialized_fill_nIPxmxET_S1_T0_RKT1_, symObjAddr: 0x6AEC, symBinAddr: 0x10000B7F8, symSize: 0x34 }
  - { offsetInCU: 0x3F83E, offset: 0x3F83E, size: 0x8, addend: 0x0, symName: __ZNSt6vectorIxSaIxEE11_S_max_sizeERKS0_, symObjAddr: 0x6B20, symBinAddr: 0x10000B82C, symSize: 0x3C }
  - { offsetInCU: 0x3F8AE, offset: 0x3F8AE, size: 0x8, addend: 0x0, symName: __ZSt18__do_uninit_fill_nIPxmxET_S1_T0_RKT1_, symObjAddr: 0x6A8C, symBinAddr: 0x10000B798, symSize: 0x60 }
  - { offsetInCU: 0x3F8B6, offset: 0x3F8B6, size: 0x8, addend: 0x0, symName: __ZSt20uninitialized_fill_nIPxmxET_S1_T0_RKT1_, symObjAddr: 0x6AEC, symBinAddr: 0x10000B7F8, symSize: 0x34 }
  - { offsetInCU: 0x3F926, offset: 0x3F926, size: 0x8, addend: 0x0, symName: __ZSt8__fill_aIPxxEvT_S1_RKT0_, symObjAddr: 0x6A5C, symBinAddr: 0x10000B768, symSize: 0x30 }
  - { offsetInCU: 0x3F92E, offset: 0x3F92E, size: 0x8, addend: 0x0, symName: __ZSt18__do_uninit_fill_nIPxmxET_S1_T0_RKT1_, symObjAddr: 0x6A8C, symBinAddr: 0x10000B798, symSize: 0x60 }
  - { offsetInCU: 0x3F984, offset: 0x3F984, size: 0x8, addend: 0x0, symName: __ZSt22__copy_move_backward_aILb1EPxS0_ET1_T0_S2_S1_, symObjAddr: 0x69FC, symBinAddr: 0x10000B708, symSize: 0x60 }
  - { offsetInCU: 0x3F98C, offset: 0x3F98C, size: 0x8, addend: 0x0, symName: __ZSt8__fill_aIPxxEvT_S1_RKT0_, symObjAddr: 0x6A5C, symBinAddr: 0x10000B768, symSize: 0x30 }
  - { offsetInCU: 0x3F9EC, offset: 0x3F9EC, size: 0x8, addend: 0x0, symName: __ZSt12__miter_baseIPxET_S1_, symObjAddr: 0x69E8, symBinAddr: 0x10000B6F4, symSize: 0x14 }
  - { offsetInCU: 0x3F9F4, offset: 0x3F9F4, size: 0x8, addend: 0x0, symName: __ZSt22__copy_move_backward_aILb1EPxS0_ET1_T0_S2_S1_, symObjAddr: 0x69FC, symBinAddr: 0x10000B708, symSize: 0x60 }
  - { offsetInCU: 0x3FA1F, offset: 0x3FA1F, size: 0x8, addend: 0x0, symName: __ZSt22__uninitialized_copy_aISt13move_iteratorIPxES1_xET0_T_S4_S3_RSaIT1_E, symObjAddr: 0x698C, symBinAddr: 0x10000B698, symSize: 0x5C }
  - { offsetInCU: 0x3FA27, offset: 0x3FA27, size: 0x8, addend: 0x0, symName: __ZSt12__miter_baseIPxET_S1_, symObjAddr: 0x69E8, symBinAddr: 0x10000B6F4, symSize: 0x14 }
  - { offsetInCU: 0x3FA8F, offset: 0x3FA8F, size: 0x8, addend: 0x0, symName: __ZSt18make_move_iteratorIPxESt13move_iteratorIT_ES2_, symObjAddr: 0x6960, symBinAddr: 0x10000B66C, symSize: 0x2C }
  - { offsetInCU: 0x3FA97, offset: 0x3FA97, size: 0x8, addend: 0x0, symName: __ZSt22__uninitialized_copy_aISt13move_iteratorIPxES1_xET0_T_S4_S3_RSaIT1_E, symObjAddr: 0x698C, symBinAddr: 0x10000B698, symSize: 0x5C }
  - { offsetInCU: 0x3FAC6, offset: 0x3FAC6, size: 0x8, addend: 0x0, symName: __ZNSt6vectorIxSaIxEE16_Temporary_value6_M_ptrEv, symObjAddr: 0x6940, symBinAddr: 0x10000B64C, symSize: 0x20 }
  - { offsetInCU: 0x3FACE, offset: 0x3FACE, size: 0x8, addend: 0x0, symName: __ZSt18make_move_iteratorIPxESt13move_iteratorIT_ES2_, symObjAddr: 0x6960, symBinAddr: 0x10000B66C, symSize: 0x2C }
  - { offsetInCU: 0x3FB47, offset: 0x3FB47, size: 0x8, addend: 0x0, symName: __ZNSt6vectorIxSaIxEE16_Temporary_value8_StorageD1Ev, symObjAddr: 0x692C, symBinAddr: 0x10000B638, symSize: 0x14 }
  - { offsetInCU: 0x3FB4F, offset: 0x3FB4F, size: 0x8, addend: 0x0, symName: __ZNSt6vectorIxSaIxEE16_Temporary_value6_M_ptrEv, symObjAddr: 0x6940, symBinAddr: 0x10000B64C, symSize: 0x20 }
  - { offsetInCU: 0x3FB88, offset: 0x3FB88, size: 0x8, addend: 0x0, symName: __ZNSt6vectorIxSaIxEE16_Temporary_value8_StorageC1Ev, symObjAddr: 0x6910, symBinAddr: 0x10000B61C, symSize: 0x1C }
  - { offsetInCU: 0x3FB90, offset: 0x3FB90, size: 0x8, addend: 0x0, symName: __ZNSt6vectorIxSaIxEE16_Temporary_value8_StorageD1Ev, symObjAddr: 0x692C, symBinAddr: 0x10000B638, symSize: 0x14 }
  - { offsetInCU: 0x3FB7A, offset: 0x3FB7A, size: 0x8, addend: 0x0, symName: __ZSt8_DestroyIPiEvT_S1_, symObjAddr: 0x68C8, symBinAddr: 0x10000B5D4, symSize: 0x48 }
  - { offsetInCU: 0x3FB82, offset: 0x3FB82, size: 0x8, addend: 0x0, symName: __ZNSt6vectorIxSaIxEE16_Temporary_value8_StorageC1Ev, symObjAddr: 0x6910, symBinAddr: 0x10000B61C, symSize: 0x1C }
  - { offsetInCU: 0x3FBBC, offset: 0x3FBBC, size: 0x8, addend: 0x0, symName: __ZSt12__relocate_aIPiS0_SaIiEET0_T_S3_S2_RT1_, symObjAddr: 0x686C, symBinAddr: 0x10000B578, symSize: 0x5C }
  - { offsetInCU: 0x3FBC4, offset: 0x3FBC4, size: 0x8, addend: 0x0, symName: __ZSt8_DestroyIPiEvT_S1_, symObjAddr: 0x68C8, symBinAddr: 0x10000B5D4, symSize: 0x48 }
  - { offsetInCU: 0x3FC8A, offset: 0x3FC8A, size: 0x8, addend: 0x0, symName: __ZSt25__uninitialized_default_nIPimET_S1_T0_, symObjAddr: 0x6818, symBinAddr: 0x10000B524, symSize: 0x54 }
  - { offsetInCU: 0x3FC92, offset: 0x3FC92, size: 0x8, addend: 0x0, symName: __ZSt12__relocate_aIPiS0_SaIiEET0_T_S3_S2_RT1_, symObjAddr: 0x686C, symBinAddr: 0x10000B578, symSize: 0x5C }
  - { offsetInCU: 0x3FCEC, offset: 0x3FCEC, size: 0x8, addend: 0x0, symName: __ZNKSt12_Vector_baseIiSaIiEE19_M_get_Tp_allocatorEv, symObjAddr: 0x6804, symBinAddr: 0x10000B510, symSize: 0x14 }
  - { offsetInCU: 0x3FCF4, offset: 0x3FCF4, size: 0x8, addend: 0x0, symName: __ZSt25__uninitialized_default_nIPimET_S1_T0_, symObjAddr: 0x6818, symBinAddr: 0x10000B524, symSize: 0x54 }
  - { offsetInCU: 0x3FD13, offset: 0x3FD13, size: 0x8, addend: 0x0, symName: __ZNSt6vectorIiSaIiEE11_S_max_sizeERKS0_, symObjAddr: 0x67C8, symBinAddr: 0x10000B4D4, symSize: 0x3C }
  - { offsetInCU: 0x3FD1B, offset: 0x3FD1B, size: 0x8, addend: 0x0, symName: __ZNKSt12_Vector_baseIiSaIiEE19_M_get_Tp_allocatorEv, symObjAddr: 0x6804, symBinAddr: 0x10000B510, symSize: 0x14 }
  - { offsetInCU: 0x3FD99, offset: 0x3FD99, size: 0x8, addend: 0x0, symName: __ZSt13__copy_move_aILb0EN9__gnu_cxx17__normal_iteratorIPSt4pairIxxESt6vectorIS3_SaIS3_EEEES8_ET1_T0_SA_S9_, symObjAddr: 0x6768, symBinAddr: 0x10000B474, symSize: 0x60 }
  - { offsetInCU: 0x3FDA1, offset: 0x3FDA1, size: 0x8, addend: 0x0, symName: __ZNSt6vectorIiSaIiEE11_S_max_sizeERKS0_, symObjAddr: 0x67C8, symBinAddr: 0x10000B4D4, symSize: 0x3C }
  - { offsetInCU: 0x3FE01, offset: 0x3FE01, size: 0x8, addend: 0x0, symName: __ZSt12__miter_baseIN9__gnu_cxx17__normal_iteratorIPSt4pairIxxESt6vectorIS3_SaIS3_EEEEET_S9_, symObjAddr: 0x6754, symBinAddr: 0x10000B460, symSize: 0x14 }
  - { offsetInCU: 0x3FE09, offset: 0x3FE09, size: 0x8, addend: 0x0, symName: __ZSt13__copy_move_aILb0EN9__gnu_cxx17__normal_iteratorIPSt4pairIxxESt6vectorIS3_SaIS3_EEEES8_ET1_T0_SA_S9_, symObjAddr: 0x6768, symBinAddr: 0x10000B474, symSize: 0x60 }
  - { offsetInCU: 0x3FE34, offset: 0x3FE34, size: 0x8, addend: 0x0, symName: __ZStssIxxENSt26common_comparison_categoryIJDTclL_ZNSt8__detail11__synth3wayEEcl7declvalIRT_EEcl7declvalIS3_EEEEDTclL_ZNS1_11__synth3wayEEcl7declvalIRT0_EEcl7declvalIS6_EEEEEE4typeERKSt4pairIS2_S5_ESD_, symObjAddr: 0x66C0, symBinAddr: 0x10000B3CC, symSize: 0x94 }
  - { offsetInCU: 0x3FE3C, offset: 0x3FE3C, size: 0x8, addend: 0x0, symName: __ZSt12__miter_baseIN9__gnu_cxx17__normal_iteratorIPSt4pairIxxESt6vectorIS3_SaIS3_EEEEET_S9_, symObjAddr: 0x6754, symBinAddr: 0x10000B460, symSize: 0x14 }
  - { offsetInCU: 0x3FEA5, offset: 0x3FEA5, size: 0x8, addend: 0x0, symName: __ZSt25__uninitialized_default_nIPSt4pairIxxEmET_S3_T0_, symObjAddr: 0x666C, symBinAddr: 0x10000B378, symSize: 0x54 }
  - { offsetInCU: 0x3FEAD, offset: 0x3FEAD, size: 0x8, addend: 0x0, symName: __ZStssIxxENSt26common_comparison_categoryIJDTclL_ZNSt8__detail11__synth3wayEEcl7declvalIRT_EEcl7declvalIS3_EEEEDTclL_ZNS1_11__synth3wayEEcl7declvalIRT0_EEcl7declvalIS6_EEEEEE4typeERKSt4pairIS2_S5_ESD_, symObjAddr: 0x66C0, symBinAddr: 0x10000B3CC, symSize: 0x94 }
  - { offsetInCU: 0x3FF03, offset: 0x3FF03, size: 0x8, addend: 0x0, symName: __ZSt26__unguarded_insertion_sortIN9__gnu_cxx17__normal_iteratorIPSt4pairIxxESt6vectorIS3_SaIS3_EEEENS0_5__ops15_Iter_less_iterEEvT_SB_T0_, symObjAddr: 0x65F4, symBinAddr: 0x10000B300, symSize: 0x78 }
  - { offsetInCU: 0x3FF0B, offset: 0x3FF0B, size: 0x8, addend: 0x0, symName: __ZSt25__uninitialized_default_nIPSt4pairIxxEmET_S3_T0_, symObjAddr: 0x666C, symBinAddr: 0x10000B378, symSize: 0x54 }
  - { offsetInCU: 0x3FF85, offset: 0x3FF85, size: 0x8, addend: 0x0, symName: __ZSt16__insertion_sortIN9__gnu_cxx17__normal_iteratorIPSt4pairIxxESt6vectorIS3_SaIS3_EEEENS0_5__ops15_Iter_less_iterEEvT_SB_T0_, symObjAddr: 0x64E0, symBinAddr: 0x10000B1EC, symSize: 0x114 }
  - { offsetInCU: 0x3FF8D, offset: 0x3FF8D, size: 0x8, addend: 0x0, symName: __ZSt26__unguarded_insertion_sortIN9__gnu_cxx17__normal_iteratorIPSt4pairIxxESt6vectorIS3_SaIS3_EEEENS0_5__ops15_Iter_less_iterEEvT_SB_T0_, symObjAddr: 0x65F4, symBinAddr: 0x10000B300, symSize: 0x78 }
  - { offsetInCU: 0x4002F, offset: 0x4002F, size: 0x8, addend: 0x0, symName: __ZNK9__gnu_cxx17__normal_iteratorIPSt4pairIxxESt6vectorIS2_SaIS2_EEEplEl, symObjAddr: 0x64A0, symBinAddr: 0x10000B1AC, symSize: 0x40 }
  - { offsetInCU: 0x40037, offset: 0x40037, size: 0x8, addend: 0x0, symName: __ZSt16__insertion_sortIN9__gnu_cxx17__normal_iteratorIPSt4pairIxxESt6vectorIS3_SaIS3_EEEENS0_5__ops15_Iter_less_iterEEvT_SB_T0_, symObjAddr: 0x64E0, symBinAddr: 0x10000B1EC, symSize: 0x114 }
  - { offsetInCU: 0x40067, offset: 0x40067, size: 0x8, addend: 0x0, symName: __ZSt27__unguarded_partition_pivotIN9__gnu_cxx17__normal_iteratorIPSt4pairIxxESt6vectorIS3_SaIS3_EEEENS0_5__ops15_Iter_less_iterEET_SB_SB_T0_, symObjAddr: 0x63FC, symBinAddr: 0x10000B108, symSize: 0xA4 }
  - { offsetInCU: 0x4006F, offset: 0x4006F, size: 0x8, addend: 0x0, symName: __ZNK9__gnu_cxx17__normal_iteratorIPSt4pairIxxESt6vectorIS2_SaIS2_EEEplEl, symObjAddr: 0x64A0, symBinAddr: 0x10000B1AC, symSize: 0x40 }
  - { offsetInCU: 0x400D6, offset: 0x400D6, size: 0x8, addend: 0x0, symName: __ZSt14__partial_sortIN9__gnu_cxx17__normal_iteratorIPSt4pairIxxESt6vectorIS3_SaIS3_EEEENS0_5__ops15_Iter_less_iterEEvT_SB_SB_T0_, symObjAddr: 0x63B0, symBinAddr: 0x10000B0BC, symSize: 0x4C }
  - { offsetInCU: 0x400DE, offset: 0x400DE, size: 0x8, addend: 0x0, symName: __ZSt27__unguarded_partition_pivotIN9__gnu_cxx17__normal_iteratorIPSt4pairIxxESt6vectorIS3_SaIS3_EEEENS0_5__ops15_Iter_less_iterEET_SB_SB_T0_, symObjAddr: 0x63FC, symBinAddr: 0x10000B108, symSize: 0xA4 }
  - { offsetInCU: 0x40177, offset: 0x40177, size: 0x8, addend: 0x0, symName: __ZSt8_DestroyIPSt4pairIxxEEvT_S3_, symObjAddr: 0x6368, symBinAddr: 0x10000B074, symSize: 0x48 }
  - { offsetInCU: 0x4017F, offset: 0x4017F, size: 0x8, addend: 0x0, symName: __ZSt14__partial_sortIN9__gnu_cxx17__normal_iteratorIPSt4pairIxxESt6vectorIS3_SaIS3_EEEENS0_5__ops15_Iter_less_iterEEvT_SB_SB_T0_, symObjAddr: 0x63B0, symBinAddr: 0x10000B0BC, symSize: 0x4C }
  - { offsetInCU: 0x401B9, offset: 0x401B9, size: 0x8, addend: 0x0, symName: __ZSt10destroy_atISt4pairIxxEEvPT_, symObjAddr: 0x6354, symBinAddr: 0x10000B060, symSize: 0x14 }
  - { offsetInCU: 0x401C1, offset: 0x401C1, size: 0x8, addend: 0x0, symName: __ZSt8_DestroyIPSt4pairIxxEEvT_S3_, symObjAddr: 0x6368, symBinAddr: 0x10000B074, symSize: 0x48 }
  - { offsetInCU: 0x401EB, offset: 0x401EB, size: 0x8, addend: 0x0, symName: __ZSt12__relocate_aIPSt4pairIxxES2_SaIS1_EET0_T_S5_S4_RT1_, symObjAddr: 0x62F8, symBinAddr: 0x10000B004, symSize: 0x5C }
  - { offsetInCU: 0x401F3, offset: 0x401F3, size: 0x8, addend: 0x0, symName: __ZSt10destroy_atISt4pairIxxEEvPT_, symObjAddr: 0x6354, symBinAddr: 0x10000B060, symSize: 0x14 }
  - { offsetInCU: 0x4028B, offset: 0x4028B, size: 0x8, addend: 0x0, symName: __ZNKSt12_Vector_baseISt4pairIxxESaIS1_EE19_M_get_Tp_allocatorEv, symObjAddr: 0x62E4, symBinAddr: 0x10000AFF0, symSize: 0x14 }
  - { offsetInCU: 0x40293, offset: 0x40293, size: 0x8, addend: 0x0, symName: __ZSt12__relocate_aIPSt4pairIxxES2_SaIS1_EET0_T_S5_S4_RT1_, symObjAddr: 0x62F8, symBinAddr: 0x10000B004, symSize: 0x5C }
  - { offsetInCU: 0x402B2, offset: 0x402B2, size: 0x8, addend: 0x0, symName: __ZNSt6vectorISt4pairIxxESaIS1_EE11_S_max_sizeERKS2_, symObjAddr: 0x62A8, symBinAddr: 0x10000AFB4, symSize: 0x3C }
  - { offsetInCU: 0x402BA, offset: 0x402BA, size: 0x8, addend: 0x0, symName: __ZNKSt12_Vector_baseISt4pairIxxESaIS1_EE19_M_get_Tp_allocatorEv, symObjAddr: 0x62E4, symBinAddr: 0x10000AFF0, symSize: 0x14 }
  - { offsetInCU: 0x403A1, offset: 0x403A1, size: 0x8, addend: 0x0, symName: __ZNSt4pairIxxEC1IRxS2_EEOT_OT0_, symObjAddr: 0x6260, symBinAddr: 0x10000AF6C, symSize: 0x48 }
  - { offsetInCU: 0x403A9, offset: 0x403A9, size: 0x8, addend: 0x0, symName: __ZNSt6vectorISt4pairIxxESaIS1_EE11_S_max_sizeERKS2_, symObjAddr: 0x62A8, symBinAddr: 0x10000AFB4, symSize: 0x3C }
  - { offsetInCU: 0x403CF, offset: 0x403CF, size: 0x8, addend: 0x0, symName: __ZNK9__gnu_cxx5__ops14_Iter_less_valclINS_17__normal_iteratorIPxSt6vectorIxSaIxEEEEKxEEbT_RT0_, symObjAddr: 0x6224, symBinAddr: 0x10000AF30, symSize: 0x3C }
  - { offsetInCU: 0x403D7, offset: 0x403D7, size: 0x8, addend: 0x0, symName: __ZNSt4pairIxxEC1IRxS2_EEOT_OT0_, symObjAddr: 0x6260, symBinAddr: 0x10000AF6C, symSize: 0x48 }
  - { offsetInCU: 0x40494, offset: 0x40494, size: 0x8, addend: 0x0, symName: __ZSt12__relocate_aIPSt6vectorIiSaIiEES3_SaIS2_EET0_T_S6_S5_RT1_, symObjAddr: 0x61C8, symBinAddr: 0x10000AED4, symSize: 0x5C }
  - { offsetInCU: 0x4049C, offset: 0x4049C, size: 0x8, addend: 0x0, symName: __ZNK9__gnu_cxx5__ops14_Iter_less_valclINS_17__normal_iteratorIPxSt6vectorIxSaIxEEEEKxEEbT_RT0_, symObjAddr: 0x6224, symBinAddr: 0x10000AF30, symSize: 0x3C }
  - { offsetInCU: 0x40530, offset: 0x40530, size: 0x8, addend: 0x0, symName: __ZSt25__uninitialized_default_nIPSt6vectorIiSaIiEEmET_S4_T0_, symObjAddr: 0x6174, symBinAddr: 0x10000AE80, symSize: 0x54 }
  - { offsetInCU: 0x40538, offset: 0x40538, size: 0x8, addend: 0x0, symName: __ZSt12__relocate_aIPSt6vectorIiSaIiEES3_SaIS2_EET0_T_S6_S5_RT1_, symObjAddr: 0x61C8, symBinAddr: 0x10000AED4, symSize: 0x5C }
  - { offsetInCU: 0x40592, offset: 0x40592, size: 0x8, addend: 0x0, symName: __ZNKSt12_Vector_baseISt6vectorIiSaIiEESaIS2_EE19_M_get_Tp_allocatorEv, symObjAddr: 0x6160, symBinAddr: 0x10000AE6C, symSize: 0x14 }
  - { offsetInCU: 0x4059A, offset: 0x4059A, size: 0x8, addend: 0x0, symName: __ZSt25__uninitialized_default_nIPSt6vectorIiSaIiEEmET_S4_T0_, symObjAddr: 0x6174, symBinAddr: 0x10000AE80, symSize: 0x54 }
  - { offsetInCU: 0x405B9, offset: 0x405B9, size: 0x8, addend: 0x0, symName: __ZNSt6vectorIS_IiSaIiEESaIS1_EE11_S_max_sizeERKS2_, symObjAddr: 0x611C, symBinAddr: 0x10000AE28, symSize: 0x44 }
  - { offsetInCU: 0x405C1, offset: 0x405C1, size: 0x8, addend: 0x0, symName: __ZNKSt12_Vector_baseISt6vectorIiSaIiEESaIS2_EE19_M_get_Tp_allocatorEv, symObjAddr: 0x6160, symBinAddr: 0x10000AE6C, symSize: 0x14 }
  - { offsetInCU: 0x4063F, offset: 0x4063F, size: 0x8, addend: 0x0, symName: __ZSt12__relocate_aIPSt6vectorIxSaIxEES3_SaIS2_EET0_T_S6_S5_RT1_, symObjAddr: 0x60C0, symBinAddr: 0x10000ADCC, symSize: 0x5C }
  - { offsetInCU: 0x40647, offset: 0x40647, size: 0x8, addend: 0x0, symName: __ZNSt6vectorIS_IiSaIiEESaIS1_EE11_S_max_sizeERKS2_, symObjAddr: 0x611C, symBinAddr: 0x10000AE28, symSize: 0x44 }
  - { offsetInCU: 0x406DB, offset: 0x406DB, size: 0x8, addend: 0x0, symName: __ZSt25__uninitialized_default_nIPSt6vectorIxSaIxEEmET_S4_T0_, symObjAddr: 0x606C, symBinAddr: 0x10000AD78, symSize: 0x54 }
  - { offsetInCU: 0x406E3, offset: 0x406E3, size: 0x8, addend: 0x0, symName: __ZSt12__relocate_aIPSt6vectorIxSaIxEES3_SaIS2_EET0_T_S6_S5_RT1_, symObjAddr: 0x60C0, symBinAddr: 0x10000ADCC, symSize: 0x5C }
  - { offsetInCU: 0x4073D, offset: 0x4073D, size: 0x8, addend: 0x0, symName: __ZNKSt12_Vector_baseISt6vectorIxSaIxEESaIS2_EE19_M_get_Tp_allocatorEv, symObjAddr: 0x6058, symBinAddr: 0x10000AD64, symSize: 0x14 }
  - { offsetInCU: 0x40745, offset: 0x40745, size: 0x8, addend: 0x0, symName: __ZSt25__uninitialized_default_nIPSt6vectorIxSaIxEEmET_S4_T0_, symObjAddr: 0x606C, symBinAddr: 0x10000AD78, symSize: 0x54 }
  - { offsetInCU: 0x40764, offset: 0x40764, size: 0x8, addend: 0x0, symName: __ZNSt6vectorIS_IxSaIxEESaIS1_EE11_S_max_sizeERKS2_, symObjAddr: 0x6014, symBinAddr: 0x10000AD20, symSize: 0x44 }
  - { offsetInCU: 0x4076C, offset: 0x4076C, size: 0x8, addend: 0x0, symName: __ZNKSt12_Vector_baseISt6vectorIxSaIxEESaIS2_EE19_M_get_Tp_allocatorEv, symObjAddr: 0x6058, symBinAddr: 0x10000AD64, symSize: 0x14 }
  - { offsetInCU: 0x407EA, offset: 0x407EA, size: 0x8, addend: 0x0, symName: __ZSt12__relocate_aIPSt6vectorISt4pairIxxESaIS2_EES5_SaIS4_EET0_T_S8_S7_RT1_, symObjAddr: 0x5FB8, symBinAddr: 0x10000ACC4, symSize: 0x5C }
  - { offsetInCU: 0x407F2, offset: 0x407F2, size: 0x8, addend: 0x0, symName: __ZNSt6vectorIS_IxSaIxEESaIS1_EE11_S_max_sizeERKS2_, symObjAddr: 0x6014, symBinAddr: 0x10000AD20, symSize: 0x44 }
  - { offsetInCU: 0x40886, offset: 0x40886, size: 0x8, addend: 0x0, symName: __ZSt25__uninitialized_default_nIPSt6vectorISt4pairIxxESaIS2_EEmET_S6_T0_, symObjAddr: 0x5F64, symBinAddr: 0x10000AC70, symSize: 0x54 }
  - { offsetInCU: 0x4088E, offset: 0x4088E, size: 0x8, addend: 0x0, symName: __ZSt12__relocate_aIPSt6vectorISt4pairIxxESaIS2_EES5_SaIS4_EET0_T_S8_S7_RT1_, symObjAddr: 0x5FB8, symBinAddr: 0x10000ACC4, symSize: 0x5C }
  - { offsetInCU: 0x408E8, offset: 0x408E8, size: 0x8, addend: 0x0, symName: __ZNKSt12_Vector_baseISt6vectorISt4pairIxxESaIS2_EESaIS4_EE19_M_get_Tp_allocatorEv, symObjAddr: 0x5F50, symBinAddr: 0x10000AC5C, symSize: 0x14 }
  - { offsetInCU: 0x408F0, offset: 0x408F0, size: 0x8, addend: 0x0, symName: __ZSt25__uninitialized_default_nIPSt6vectorISt4pairIxxESaIS2_EEmET_S6_T0_, symObjAddr: 0x5F64, symBinAddr: 0x10000AC70, symSize: 0x54 }
  - { offsetInCU: 0x4090F, offset: 0x4090F, size: 0x8, addend: 0x0, symName: __ZNSt6vectorIS_ISt4pairIxxESaIS1_EESaIS3_EE11_S_max_sizeERKS4_, symObjAddr: 0x5F0C, symBinAddr: 0x10000AC18, symSize: 0x44 }
  - { offsetInCU: 0x40917, offset: 0x40917, size: 0x8, addend: 0x0, symName: __ZNKSt12_Vector_baseISt6vectorISt4pairIxxESaIS2_EESaIS4_EE19_M_get_Tp_allocatorEv, symObjAddr: 0x5F50, symBinAddr: 0x10000AC5C, symSize: 0x14 }
  - { offsetInCU: 0x40995, offset: 0x40995, size: 0x8, addend: 0x0, symName: __ZSt4moveIN9__gnu_cxx17__normal_iteratorIPxSt6vectorIxSaIxEEEES6_ET0_T_S8_S7_, symObjAddr: 0x5EC4, symBinAddr: 0x10000ABD0, symSize: 0x48 }
  - { offsetInCU: 0x4099D, offset: 0x4099D, size: 0x8, addend: 0x0, symName: __ZNSt6vectorIS_ISt4pairIxxESaIS1_EESaIS3_EE11_S_max_sizeERKS4_, symObjAddr: 0x5F0C, symBinAddr: 0x10000AC18, symSize: 0x44 }
  - { offsetInCU: 0x409F7, offset: 0x409F7, size: 0x8, addend: 0x0, symName: __ZNK9__gnu_cxx17__normal_iteratorIPKxSt6vectorIxSaIxEEE4baseEv, symObjAddr: 0x5EB0, symBinAddr: 0x10000ABBC, symSize: 0x14 }
  - { offsetInCU: 0x409FF, offset: 0x409FF, size: 0x8, addend: 0x0, symName: __ZSt4moveIN9__gnu_cxx17__normal_iteratorIPxSt6vectorIxSaIxEEEES6_ET0_T_S8_S7_, symObjAddr: 0x5EC4, symBinAddr: 0x10000ABD0, symSize: 0x48 }
  - { offsetInCU: 0x40A86, offset: 0x40A86, size: 0x8, addend: 0x0, symName: __ZN9__gnu_cxx17__normal_iteratorIPKxSt6vectorIxSaIxEEEC1ERKS2_, symObjAddr: 0x5E88, symBinAddr: 0x10000AB94, symSize: 0x28 }
  - { offsetInCU: 0x40A8E, offset: 0x40A8E, size: 0x8, addend: 0x0, symName: __ZNK9__gnu_cxx17__normal_iteratorIPKxSt6vectorIxSaIxEEE4baseEv, symObjAddr: 0x5EB0, symBinAddr: 0x10000ABBC, symSize: 0x14 }
  - { offsetInCU: 0x40A7D, offset: 0x40A7D, size: 0x8, addend: 0x0, symName: __ZSt4moveIRxEONSt16remove_referenceIT_E4typeEOS2_, symObjAddr: 0x5E74, symBinAddr: 0x10000AB80, symSize: 0x14 }
  - { offsetInCU: 0x40A85, offset: 0x40A85, size: 0x8, addend: 0x0, symName: __ZN9__gnu_cxx17__normal_iteratorIPKxSt6vectorIxSaIxEEEC1ERKS2_, symObjAddr: 0x5E88, symBinAddr: 0x10000AB94, symSize: 0x28 }
  - { offsetInCU: 0x40ABE, offset: 0x40ABE, size: 0x8, addend: 0x0, symName: __ZNK9__gnu_cxx5__ops19_Iter_equal_to_iterclINS_17__normal_iteratorIPxSt6vectorIxSaIxEEEES8_EEbT_T0_, symObjAddr: 0x5E2C, symBinAddr: 0x10000AB38, symSize: 0x48 }
  - { offsetInCU: 0x40AC6, offset: 0x40AC6, size: 0x8, addend: 0x0, symName: __ZSt4moveIRxEONSt16remove_referenceIT_E4typeEOS2_, symObjAddr: 0x5E74, symBinAddr: 0x10000AB80, symSize: 0x14 }
  - { offsetInCU: 0x40B1B, offset: 0x40B1B, size: 0x8, addend: 0x0, symName: __ZNK9__gnu_cxx17__normal_iteratorIPxSt6vectorIxSaIxEEEdeEv, symObjAddr: 0x5E14, symBinAddr: 0x10000AB20, symSize: 0x18 }
  - { offsetInCU: 0x40B23, offset: 0x40B23, size: 0x8, addend: 0x0, symName: __ZNK9__gnu_cxx5__ops19_Iter_equal_to_iterclINS_17__normal_iteratorIPxSt6vectorIxSaIxEEEES8_EEbT_T0_, symObjAddr: 0x5E2C, symBinAddr: 0x10000AB38, symSize: 0x48 }
  - { offsetInCU: 0x40B46, offset: 0x40B46, size: 0x8, addend: 0x0, symName: __ZN9__gnu_cxx17__normal_iteratorIPxSt6vectorIxSaIxEEEppEv, symObjAddr: 0x5DEC, symBinAddr: 0x10000AAF8, symSize: 0x28 }
  - { offsetInCU: 0x40B4E, offset: 0x40B4E, size: 0x8, addend: 0x0, symName: __ZNK9__gnu_cxx17__normal_iteratorIPxSt6vectorIxSaIxEEEdeEv, symObjAddr: 0x5E14, symBinAddr: 0x10000AB20, symSize: 0x18 }
  - { offsetInCU: 0x40B6D, offset: 0x40B6D, size: 0x8, addend: 0x0, symName: __ZSt15__adjacent_findIN9__gnu_cxx17__normal_iteratorIPxSt6vectorIxSaIxEEEENS0_5__ops19_Iter_equal_to_iterEET_S9_S9_T0_, symObjAddr: 0x5D38, symBinAddr: 0x10000AA44, symSize: 0xB4 }
  - { offsetInCU: 0x40B75, offset: 0x40B75, size: 0x8, addend: 0x0, symName: __ZN9__gnu_cxx17__normal_iteratorIPxSt6vectorIxSaIxEEEppEv, symObjAddr: 0x5DEC, symBinAddr: 0x10000AAF8, symSize: 0x28 }
  - { offsetInCU: 0x40BDC, offset: 0x40BDC, size: 0x8, addend: 0x0, symName: __ZSt22__final_insertion_sortIN9__gnu_cxx17__normal_iteratorIPxSt6vectorIxSaIxEEEENS0_5__ops15_Iter_less_iterEEvT_S9_T0_, symObjAddr: 0x5C9C, symBinAddr: 0x10000A9A8, symSize: 0x9C }
  - { offsetInCU: 0x40BE4, offset: 0x40BE4, size: 0x8, addend: 0x0, symName: __ZSt15__adjacent_findIN9__gnu_cxx17__normal_iteratorIPxSt6vectorIxSaIxEEEENS0_5__ops19_Iter_equal_to_iterEET_S9_S9_T0_, symObjAddr: 0x5D38, symBinAddr: 0x10000AA44, symSize: 0xB4 }
  - { offsetInCU: 0x40C3A, offset: 0x40C3A, size: 0x8, addend: 0x0, symName: __ZSt16__introsort_loopIN9__gnu_cxx17__normal_iteratorIPxSt6vectorIxSaIxEEEElNS0_5__ops15_Iter_less_iterEEvT_S9_T0_T1_, symObjAddr: 0x5BE4, symBinAddr: 0x10000A8F0, symSize: 0xB8 }
  - { offsetInCU: 0x40C42, offset: 0x40C42, size: 0x8, addend: 0x0, symName: __ZSt22__final_insertion_sortIN9__gnu_cxx17__normal_iteratorIPxSt6vectorIxSaIxEEEENS0_5__ops15_Iter_less_iterEEvT_S9_T0_, symObjAddr: 0x5C9C, symBinAddr: 0x10000A9A8, symSize: 0x9C }
  - { offsetInCU: 0x40CD6, offset: 0x40CD6, size: 0x8, addend: 0x0, symName: __ZSt13__countl_zeroImEiT_, symObjAddr: 0x5B90, symBinAddr: 0x10000A89C, symSize: 0x54 }
  - { offsetInCU: 0x40CDE, offset: 0x40CDE, size: 0x8, addend: 0x0, symName: __ZSt16__introsort_loopIN9__gnu_cxx17__normal_iteratorIPxSt6vectorIxSaIxEEEElNS0_5__ops15_Iter_less_iterEEvT_S9_T0_T1_, symObjAddr: 0x5BE4, symBinAddr: 0x10000A8F0, symSize: 0xB8 }
  - { offsetInCU: 0x40D6B, offset: 0x40D6B, size: 0x8, addend: 0x0, symName: __ZSt8_DestroyIPSt6vectorIiSaIiEEEvT_S4_, symObjAddr: 0x5B48, symBinAddr: 0x10000A854, symSize: 0x48 }
  - { offsetInCU: 0x40D73, offset: 0x40D73, size: 0x8, addend: 0x0, symName: __ZSt13__countl_zeroImEiT_, symObjAddr: 0x5B90, symBinAddr: 0x10000A89C, symSize: 0x54 }
  - { offsetInCU: 0x40DF6, offset: 0x40DF6, size: 0x8, addend: 0x0, symName: __ZSt8_DestroyIPSt6vectorISt4pairIxxESaIS2_EEEvT_S6_, symObjAddr: 0x5B00, symBinAddr: 0x10000A80C, symSize: 0x48 }
  - { offsetInCU: 0x40DFE, offset: 0x40DFE, size: 0x8, addend: 0x0, symName: __ZSt8_DestroyIPSt6vectorIiSaIiEEEvT_S4_, symObjAddr: 0x5B48, symBinAddr: 0x10000A854, symSize: 0x48 }
  - { offsetInCU: 0x40E81, offset: 0x40E81, size: 0x8, addend: 0x0, symName: __ZSt8_DestroyIPSt6vectorIxSaIxEEEvT_S4_, symObjAddr: 0x5AB8, symBinAddr: 0x10000A7C4, symSize: 0x48 }
  - { offsetInCU: 0x40E89, offset: 0x40E89, size: 0x8, addend: 0x0, symName: __ZSt8_DestroyIPSt6vectorISt4pairIxxESaIS2_EEEvT_S6_, symObjAddr: 0x5B00, symBinAddr: 0x10000A80C, symSize: 0x48 }
  - { offsetInCU: 0x40F0C, offset: 0x40F0C, size: 0x8, addend: 0x0, symName: __ZSt8_DestroyIPxEvT_S1_, symObjAddr: 0x5A70, symBinAddr: 0x10000A77C, symSize: 0x48 }
  - { offsetInCU: 0x40F14, offset: 0x40F14, size: 0x8, addend: 0x0, symName: __ZSt8_DestroyIPSt6vectorIxSaIxEEEvT_S4_, symObjAddr: 0x5AB8, symBinAddr: 0x10000A7C4, symSize: 0x48 }
  - { offsetInCU: 0x40F9B, offset: 0x40F9B, size: 0x8, addend: 0x0, symName: __ZNK9__gnu_cxx5__ops14_Iter_less_valclINS_17__normal_iteratorIPSt4pairIxxESt6vectorIS5_SaIS5_EEEEKS5_EEbT_RT0_, symObjAddr: 0x5A1C, symBinAddr: 0x10000A728, symSize: 0x54 }
  - { offsetInCU: 0x40FA3, offset: 0x40FA3, size: 0x8, addend: 0x0, symName: __ZSt8_DestroyIPxEvT_S1_, symObjAddr: 0x5A70, symBinAddr: 0x10000A77C, symSize: 0x48 }
  - { offsetInCU: 0x4108D, offset: 0x4108D, size: 0x8, addend: 0x0, symName: __ZNSt6vectorIxSaIxEE11_S_relocateEPxS2_S2_RS0_, symObjAddr: 0x59E8, symBinAddr: 0x10000A6F4, symSize: 0x34 }
  - { offsetInCU: 0x41095, offset: 0x41095, size: 0x8, addend: 0x0, symName: __ZNK9__gnu_cxx5__ops14_Iter_less_valclINS_17__normal_iteratorIPSt4pairIxxESt6vectorIS5_SaIS5_EEEEKS5_EEbT_RT0_, symObjAddr: 0x5A1C, symBinAddr: 0x10000A728, symSize: 0x54 }
  - { offsetInCU: 0x410EA, offset: 0x410EA, size: 0x8, addend: 0x0, symName: __ZSt12construct_atIxJRKxEEDTgsnwcvPvLi0E_T_pispcl7declvalIT0_EEEEPS3_DpOS4_, symObjAddr: 0x59A0, symBinAddr: 0x10000A6AC, symSize: 0x48 }
  - { offsetInCU: 0x410F2, offset: 0x410F2, size: 0x8, addend: 0x0, symName: __ZNSt6vectorIxSaIxEE11_S_relocateEPxS2_S2_RS0_, symObjAddr: 0x59E8, symBinAddr: 0x10000A6F4, symSize: 0x34 }
  - { offsetInCU: 0x4113D, offset: 0x4113D, size: 0x8, addend: 0x0, symName: __ZSt7forwardIRKxEOT_RNSt16remove_referenceIS2_E4typeE, symObjAddr: 0x598C, symBinAddr: 0x10000A698, symSize: 0x14 }
  - { offsetInCU: 0x41145, offset: 0x41145, size: 0x8, addend: 0x0, symName: __ZSt12construct_atIxJRKxEEDTgsnwcvPvLi0E_T_pispcl7declvalIT0_EEEEPS3_DpOS4_, symObjAddr: 0x59A0, symBinAddr: 0x10000A6AC, symSize: 0x48 }
  - { offsetInCU: 0x4116F, offset: 0x4116F, size: 0x8, addend: 0x0, symName: __ZSt34__uninitialized_move_if_noexcept_aIPxS0_SaIxEET0_T_S3_S2_RT1_, symObjAddr: 0x593C, symBinAddr: 0x10000A648, symSize: 0x50 }
  - { offsetInCU: 0x41177, offset: 0x41177, size: 0x8, addend: 0x0, symName: __ZSt7forwardIRKxEOT_RNSt16remove_referenceIS2_E4typeE, symObjAddr: 0x598C, symBinAddr: 0x10000A698, symSize: 0x14 }
  - { offsetInCU: 0x411EB, offset: 0x411EB, size: 0x8, addend: 0x0, symName: __ZNSt12_Vector_baseIxSaIxEE11_M_allocateEm, symObjAddr: 0x5874, symBinAddr: 0x10000A580, symSize: 0xC8 }
  - { offsetInCU: 0x411F3, offset: 0x411F3, size: 0x8, addend: 0x0, symName: __ZSt34__uninitialized_move_if_noexcept_aIPxS0_SaIxEET0_T_S3_S2_RT1_, symObjAddr: 0x593C, symBinAddr: 0x10000A648, symSize: 0x50 }
  - { offsetInCU: 0x41281, offset: 0x41281, size: 0x8, addend: 0x0, symName: __ZNKSt6vectorIxSaIxEE8max_sizeEv, symObjAddr: 0x5854, symBinAddr: 0x10000A560, symSize: 0x20 }
  - { offsetInCU: 0x41289, offset: 0x41289, size: 0x8, addend: 0x0, symName: __ZNSt12_Vector_baseIxSaIxEE11_M_allocateEm, symObjAddr: 0x5874, symBinAddr: 0x10000A580, symSize: 0xC8 }
  - { offsetInCU: 0x412A8, offset: 0x412A8, size: 0x8, addend: 0x0, symName: __ZSt24__uninitialized_fill_n_aIPxmxxET_S1_T0_RKT1_RSaIT2_E, symObjAddr: 0x57F8, symBinAddr: 0x10000A504, symSize: 0x5C }
  - { offsetInCU: 0x412B0, offset: 0x412B0, size: 0x8, addend: 0x0, symName: __ZNKSt6vectorIxSaIxEE8max_sizeEv, symObjAddr: 0x5854, symBinAddr: 0x10000A560, symSize: 0x20 }
  - { offsetInCU: 0x41321, offset: 0x41321, size: 0x8, addend: 0x0, symName: __ZSt4fillIPxxEvT_S1_RKT0_, symObjAddr: 0x57C8, symBinAddr: 0x10000A4D4, symSize: 0x30 }
  - { offsetInCU: 0x41329, offset: 0x41329, size: 0x8, addend: 0x0, symName: __ZSt24__uninitialized_fill_n_aIPxmxxET_S1_T0_RKT1_RSaIT2_E, symObjAddr: 0x57F8, symBinAddr: 0x10000A504, symSize: 0x5C }
  - { offsetInCU: 0x4137F, offset: 0x4137F, size: 0x8, addend: 0x0, symName: __ZSt13move_backwardIPxS0_ET0_T_S2_S1_, symObjAddr: 0x5780, symBinAddr: 0x10000A48C, symSize: 0x48 }
  - { offsetInCU: 0x41387, offset: 0x41387, size: 0x8, addend: 0x0, symName: __ZSt4fillIPxxEvT_S1_RKT0_, symObjAddr: 0x57C8, symBinAddr: 0x10000A4D4, symSize: 0x30 }
  - { offsetInCU: 0x413DD, offset: 0x413DD, size: 0x8, addend: 0x0, symName: __ZSt22__uninitialized_move_aIPxS0_SaIxEET0_T_S3_S2_RT1_, symObjAddr: 0x5730, symBinAddr: 0x10000A43C, symSize: 0x50 }
  - { offsetInCU: 0x413E5, offset: 0x413E5, size: 0x8, addend: 0x0, symName: __ZSt13move_backwardIPxS0_ET0_T_S2_S1_, symObjAddr: 0x5780, symBinAddr: 0x10000A48C, symSize: 0x48 }
  - { offsetInCU: 0x414A6, offset: 0x414A6, size: 0x8, addend: 0x0, symName: __ZNSt6vectorIxSaIxEE16_Temporary_valueD1Ev, symObjAddr: 0x56DC, symBinAddr: 0x10000A3E8, symSize: 0x54 }
  - { offsetInCU: 0x414AE, offset: 0x414AE, size: 0x8, addend: 0x0, symName: __ZSt22__uninitialized_move_aIPxS0_SaIxEET0_T_S3_S2_RT1_, symObjAddr: 0x5730, symBinAddr: 0x10000A43C, symSize: 0x50 }
  - { offsetInCU: 0x41548, offset: 0x41548, size: 0x8, addend: 0x0, symName: __ZNSt6vectorIxSaIxEE16_Temporary_valueC1IJRKxEEEPS1_DpOT_, symObjAddr: 0x5658, symBinAddr: 0x10000A364, symSize: 0x84 }
  - { offsetInCU: 0x41550, offset: 0x41550, size: 0x8, addend: 0x0, symName: __ZNSt6vectorIxSaIxEE16_Temporary_valueD1Ev, symObjAddr: 0x56DC, symBinAddr: 0x10000A3E8, symSize: 0x54 }
  - { offsetInCU: 0x415C9, offset: 0x415C9, size: 0x8, addend: 0x0, symName: __ZNSt6vectorIiSaIiEE11_S_relocateEPiS2_S2_RS0_, symObjAddr: 0x5624, symBinAddr: 0x10000A330, symSize: 0x34 }
  - { offsetInCU: 0x415D1, offset: 0x415D1, size: 0x8, addend: 0x0, symName: __ZNSt6vectorIxSaIxEE16_Temporary_valueC1IJRKxEEEPS1_DpOT_, symObjAddr: 0x5658, symBinAddr: 0x10000A364, symSize: 0x84 }
  - { offsetInCU: 0x4162A, offset: 0x4162A, size: 0x8, addend: 0x0, symName: __ZNSt12_Vector_baseIiSaIiEE13_M_deallocateEPim, symObjAddr: 0x5594, symBinAddr: 0x10000A2A0, symSize: 0x90 }
  - { offsetInCU: 0x41632, offset: 0x41632, size: 0x8, addend: 0x0, symName: __ZNSt6vectorIiSaIiEE11_S_relocateEPiS2_S2_RS0_, symObjAddr: 0x5624, symBinAddr: 0x10000A330, symSize: 0x34 }
  - { offsetInCU: 0x416E4, offset: 0x416E4, size: 0x8, addend: 0x0, symName: __ZNSt12_Vector_baseIiSaIiEE11_M_allocateEm, symObjAddr: 0x54CC, symBinAddr: 0x10000A1D8, symSize: 0xC8 }
  - { offsetInCU: 0x416EC, offset: 0x416EC, size: 0x8, addend: 0x0, symName: __ZNSt12_Vector_baseIiSaIiEE13_M_deallocateEPim, symObjAddr: 0x5594, symBinAddr: 0x10000A2A0, symSize: 0x90 }
  - { offsetInCU: 0x41776, offset: 0x41776, size: 0x8, addend: 0x0, symName: __ZSt27__uninitialized_default_n_aIPimiET_S1_T0_RSaIT1_E, symObjAddr: 0x54A4, symBinAddr: 0x10000A1B0, symSize: 0x28 }
  - { offsetInCU: 0x4177E, offset: 0x4177E, size: 0x8, addend: 0x0, symName: __ZNSt12_Vector_baseIiSaIiEE11_M_allocateEm, symObjAddr: 0x54CC, symBinAddr: 0x10000A1D8, symSize: 0xC8 }
  - { offsetInCU: 0x417D9, offset: 0x417D9, size: 0x8, addend: 0x0, symName: __ZNSt12_Vector_baseIiSaIiEE19_M_get_Tp_allocatorEv, symObjAddr: 0x5490, symBinAddr: 0x10000A19C, symSize: 0x14 }
  - { offsetInCU: 0x417E1, offset: 0x417E1, size: 0x8, addend: 0x0, symName: __ZSt27__uninitialized_default_n_aIPimiET_S1_T0_RSaIT1_E, symObjAddr: 0x54A4, symBinAddr: 0x10000A1B0, symSize: 0x28 }
  - { offsetInCU: 0x41804, offset: 0x41804, size: 0x8, addend: 0x0, symName: __ZNKSt6vectorIiSaIiEE8max_sizeEv, symObjAddr: 0x5470, symBinAddr: 0x10000A17C, symSize: 0x20 }
  - { offsetInCU: 0x4180C, offset: 0x4180C, size: 0x8, addend: 0x0, symName: __ZNSt12_Vector_baseIiSaIiEE19_M_get_Tp_allocatorEv, symObjAddr: 0x5490, symBinAddr: 0x10000A19C, symSize: 0x14 }
  - { offsetInCU: 0x4182B, offset: 0x4182B, size: 0x8, addend: 0x0, symName: __ZSt4copyIN9__gnu_cxx17__normal_iteratorIPSt4pairIxxESt6vectorIS3_SaIS3_EEEES8_ET0_T_SA_S9_, symObjAddr: 0x5428, symBinAddr: 0x10000A134, symSize: 0x48 }
  - { offsetInCU: 0x41833, offset: 0x41833, size: 0x8, addend: 0x0, symName: __ZNKSt6vectorIiSaIiEE8max_sizeEv, symObjAddr: 0x5470, symBinAddr: 0x10000A17C, symSize: 0x20 }
  - { offsetInCU: 0x4188D, offset: 0x4188D, size: 0x8, addend: 0x0, symName: __ZN9__gnu_cxx17__normal_iteratorIPSt4pairIxxESt6vectorIS2_SaIS2_EEEppEv, symObjAddr: 0x5400, symBinAddr: 0x10000A10C, symSize: 0x28 }
  - { offsetInCU: 0x41895, offset: 0x41895, size: 0x8, addend: 0x0, symName: __ZSt4copyIN9__gnu_cxx17__normal_iteratorIPSt4pairIxxESt6vectorIS3_SaIS3_EEEES8_ET0_T_SA_S9_, symObjAddr: 0x5428, symBinAddr: 0x10000A134, symSize: 0x48 }
  - { offsetInCU: 0x418B8, offset: 0x418B8, size: 0x8, addend: 0x0, symName: __ZNSt4pairIxxEaSERKS0_, symObjAddr: 0x53C8, symBinAddr: 0x10000A0D4, symSize: 0x38 }
  - { offsetInCU: 0x418C0, offset: 0x418C0, size: 0x8, addend: 0x0, symName: __ZN9__gnu_cxx17__normal_iteratorIPSt4pairIxxESt6vectorIS2_SaIS2_EEEppEv, symObjAddr: 0x5400, symBinAddr: 0x10000A10C, symSize: 0x28 }
  - { offsetInCU: 0x418F4, offset: 0x418F4, size: 0x8, addend: 0x0, symName: __ZNK9__gnu_cxx5__ops15_Iter_less_iterclINS_17__normal_iteratorIPSt4pairIxxESt6vectorIS5_SaIS5_EEEESA_EEbT_T0_, symObjAddr: 0x5364, symBinAddr: 0x10000A070, symSize: 0x64 }
  - { offsetInCU: 0x418FC, offset: 0x418FC, size: 0x8, addend: 0x0, symName: __ZNSt4pairIxxEaSERKS0_, symObjAddr: 0x53C8, symBinAddr: 0x10000A0D4, symSize: 0x38 }
  - { offsetInCU: 0x41951, offset: 0x41951, size: 0x8, addend: 0x0, symName: __ZNKSt8__detail10_Synth3wayclIxxEEDaRKT_RKT0_, symObjAddr: 0x5308, symBinAddr: 0x10000A014, symSize: 0x5C }
  - { offsetInCU: 0x41959, offset: 0x41959, size: 0x8, addend: 0x0, symName: __ZNK9__gnu_cxx5__ops15_Iter_less_iterclINS_17__normal_iteratorIPSt4pairIxxESt6vectorIS5_SaIS5_EEEESA_EEbT_T0_, symObjAddr: 0x5364, symBinAddr: 0x10000A070, symSize: 0x64 }
  - { offsetInCU: 0x419AC, offset: 0x419AC, size: 0x8, addend: 0x0, symName: __ZSt27__uninitialized_default_n_aIPSt4pairIxxEmS1_ET_S3_T0_RSaIT1_E, symObjAddr: 0x52E0, symBinAddr: 0x100009FEC, symSize: 0x28 }
  - { offsetInCU: 0x419B4, offset: 0x419B4, size: 0x8, addend: 0x0, symName: __ZNKSt8__detail10_Synth3wayclIxxEEDaRKT_RKT0_, symObjAddr: 0x5308, symBinAddr: 0x10000A014, symSize: 0x5C }
  - { offsetInCU: 0x41A0B, offset: 0x41A0B, size: 0x8, addend: 0x0, symName: __ZSt22__final_insertion_sortIN9__gnu_cxx17__normal_iteratorIPSt4pairIxxESt6vectorIS3_SaIS3_EEEENS0_5__ops15_Iter_less_iterEEvT_SB_T0_, symObjAddr: 0x5244, symBinAddr: 0x100009F50, symSize: 0x9C }
  - { offsetInCU: 0x41A13, offset: 0x41A13, size: 0x8, addend: 0x0, symName: __ZSt27__uninitialized_default_n_aIPSt4pairIxxEmS1_ET_S3_T0_RSaIT1_E, symObjAddr: 0x52E0, symBinAddr: 0x100009FEC, symSize: 0x28 }
  - { offsetInCU: 0x41A69, offset: 0x41A69, size: 0x8, addend: 0x0, symName: __ZSt16__introsort_loopIN9__gnu_cxx17__normal_iteratorIPSt4pairIxxESt6vectorIS3_SaIS3_EEEElNS0_5__ops15_Iter_less_iterEEvT_SB_T0_T1_, symObjAddr: 0x518C, symBinAddr: 0x100009E98, symSize: 0xB8 }
  - { offsetInCU: 0x41A71, offset: 0x41A71, size: 0x8, addend: 0x0, symName: __ZSt22__final_insertion_sortIN9__gnu_cxx17__normal_iteratorIPSt4pairIxxESt6vectorIS3_SaIS3_EEEENS0_5__ops15_Iter_less_iterEEvT_SB_T0_, symObjAddr: 0x5244, symBinAddr: 0x100009F50, symSize: 0x9C }
  - { offsetInCU: 0x41B05, offset: 0x41B05, size: 0x8, addend: 0x0, symName: __ZSt4__lgIlET_S0_, symObjAddr: 0x5168, symBinAddr: 0x100009E74, symSize: 0x24 }
  - { offsetInCU: 0x41B0D, offset: 0x41B0D, size: 0x8, addend: 0x0, symName: __ZSt16__introsort_loopIN9__gnu_cxx17__normal_iteratorIPSt4pairIxxESt6vectorIS3_SaIS3_EEEElNS0_5__ops15_Iter_less_iterEEvT_SB_T0_T1_, symObjAddr: 0x518C, symBinAddr: 0x100009E98, symSize: 0xB8 }
  - { offsetInCU: 0x41B3C, offset: 0x41B3C, size: 0x8, addend: 0x0, symName: __ZNK9__gnu_cxx17__normal_iteratorIPSt4pairIxxESt6vectorIS2_SaIS2_EEEdeEv, symObjAddr: 0x5150, symBinAddr: 0x100009E5C, symSize: 0x18 }
  - { offsetInCU: 0x41B44, offset: 0x41B44, size: 0x8, addend: 0x0, symName: __ZSt4__lgIlET_S0_, symObjAddr: 0x5168, symBinAddr: 0x100009E74, symSize: 0x24 }
  - { offsetInCU: 0x41B67, offset: 0x41B67, size: 0x8, addend: 0x0, symName: __ZNK9__gnu_cxx17__normal_iteratorIPSt4pairIxxESt6vectorIS2_SaIS2_EEEmiEl, symObjAddr: 0x510C, symBinAddr: 0x100009E18, symSize: 0x44 }
  - { offsetInCU: 0x41B6F, offset: 0x41B6F, size: 0x8, addend: 0x0, symName: __ZNK9__gnu_cxx17__normal_iteratorIPSt4pairIxxESt6vectorIS2_SaIS2_EEEdeEv, symObjAddr: 0x5150, symBinAddr: 0x100009E5C, symSize: 0x18 }
  - { offsetInCU: 0x41BA3, offset: 0x41BA3, size: 0x8, addend: 0x0, symName: __ZNSt12_Vector_baseISt4pairIxxESaIS1_EE13_M_deallocateEPS1_m, symObjAddr: 0x507C, symBinAddr: 0x100009D88, symSize: 0x90 }
  - { offsetInCU: 0x41BAB, offset: 0x41BAB, size: 0x8, addend: 0x0, symName: __ZNK9__gnu_cxx17__normal_iteratorIPSt4pairIxxESt6vectorIS2_SaIS2_EEEmiEl, symObjAddr: 0x510C, symBinAddr: 0x100009E18, symSize: 0x44 }
  - { offsetInCU: 0x41CC5, offset: 0x41CC5, size: 0x8, addend: 0x0, symName: __ZNSt12_Vector_baseISt4pairIxxESaIS1_EE19_M_get_Tp_allocatorEv, symObjAddr: 0x5068, symBinAddr: 0x100009D74, symSize: 0x14 }
  - { offsetInCU: 0x41CCD, offset: 0x41CCD, size: 0x8, addend: 0x0, symName: __ZNSt12_Vector_baseISt4pairIxxESaIS1_EE13_M_deallocateEPS1_m, symObjAddr: 0x507C, symBinAddr: 0x100009D88, symSize: 0x90 }
  - { offsetInCU: 0x41CEC, offset: 0x41CEC, size: 0x8, addend: 0x0, symName: __ZNSt6vectorISt4pairIxxESaIS1_EE11_S_relocateEPS1_S4_S4_RS2_, symObjAddr: 0x5034, symBinAddr: 0x100009D40, symSize: 0x34 }
  - { offsetInCU: 0x41CF4, offset: 0x41CF4, size: 0x8, addend: 0x0, symName: __ZNSt12_Vector_baseISt4pairIxxESaIS1_EE19_M_get_Tp_allocatorEv, symObjAddr: 0x5068, symBinAddr: 0x100009D74, symSize: 0x14 }
  - { offsetInCU: 0x41D4D, offset: 0x41D4D, size: 0x8, addend: 0x0, symName: __ZNSt12_Vector_baseISt4pairIxxESaIS1_EE11_M_allocateEm, symObjAddr: 0x4F6C, symBinAddr: 0x100009C78, symSize: 0xC8 }
  - { offsetInCU: 0x41D55, offset: 0x41D55, size: 0x8, addend: 0x0, symName: __ZNSt6vectorISt4pairIxxESaIS1_EE11_S_relocateEPS1_S4_S4_RS2_, symObjAddr: 0x5034, symBinAddr: 0x100009D40, symSize: 0x34 }
  - { offsetInCU: 0x41DE3, offset: 0x41DE3, size: 0x8, addend: 0x0, symName: __ZNKSt6vectorISt4pairIxxESaIS1_EE8max_sizeEv, symObjAddr: 0x4F4C, symBinAddr: 0x100009C58, symSize: 0x20 }
  - { offsetInCU: 0x41DEB, offset: 0x41DEB, size: 0x8, addend: 0x0, symName: __ZNSt12_Vector_baseISt4pairIxxESaIS1_EE11_M_allocateEm, symObjAddr: 0x4F6C, symBinAddr: 0x100009C78, symSize: 0xC8 }
  - { offsetInCU: 0x41E0A, offset: 0x41E0A, size: 0x8, addend: 0x0, symName: __ZSt12construct_atISt4pairIxxEJRxS2_EEDTgsnwcvPvLi0E_T_pispcl7declvalIT0_EEEEPS4_DpOS5_, symObjAddr: 0x4EEC, symBinAddr: 0x100009BF8, symSize: 0x60 }
  - { offsetInCU: 0x41E12, offset: 0x41E12, size: 0x8, addend: 0x0, symName: __ZNKSt6vectorISt4pairIxxESaIS1_EE8max_sizeEv, symObjAddr: 0x4F4C, symBinAddr: 0x100009C58, symSize: 0x20 }
  - { offsetInCU: 0x41E64, offset: 0x41E64, size: 0x8, addend: 0x0, symName: __ZSt13__lower_boundIN9__gnu_cxx17__normal_iteratorIPxSt6vectorIxSaIxEEEExNS0_5__ops14_Iter_less_valEET_S9_S9_RKT0_T1_, symObjAddr: 0x4DE0, symBinAddr: 0x100009AEC, symSize: 0x10C }
  - { offsetInCU: 0x41E6C, offset: 0x41E6C, size: 0x8, addend: 0x0, symName: __ZSt12construct_atISt4pairIxxEJRxS2_EEDTgsnwcvPvLi0E_T_pispcl7declvalIT0_EEEEPS4_DpOS5_, symObjAddr: 0x4EEC, symBinAddr: 0x100009BF8, symSize: 0x60 }
  - { offsetInCU: 0x4200E, offset: 0x4200E, size: 0x8, addend: 0x0, symName: __ZNSt6vectorIS_IiSaIiEESaIS1_EE11_S_relocateEPS1_S4_S4_RS2_, symObjAddr: 0x4DAC, symBinAddr: 0x100009AB8, symSize: 0x34 }
  - { offsetInCU: 0x42016, offset: 0x42016, size: 0x8, addend: 0x0, symName: __ZSt13__lower_boundIN9__gnu_cxx17__normal_iteratorIPxSt6vectorIxSaIxEEEExNS0_5__ops14_Iter_less_valEET_S9_S9_RKT0_T1_, symObjAddr: 0x4DE0, symBinAddr: 0x100009AEC, symSize: 0x10C }
  - { offsetInCU: 0x4206F, offset: 0x4206F, size: 0x8, addend: 0x0, symName: __ZNSt12_Vector_baseISt6vectorIiSaIiEESaIS2_EE11_M_allocateEm, symObjAddr: 0x4CC0, symBinAddr: 0x1000099CC, symSize: 0xEC }
  - { offsetInCU: 0x42077, offset: 0x42077, size: 0x8, addend: 0x0, symName: __ZNSt6vectorIS_IiSaIiEESaIS1_EE11_S_relocateEPS1_S4_S4_RS2_, symObjAddr: 0x4DAC, symBinAddr: 0x100009AB8, symSize: 0x34 }
  - { offsetInCU: 0x42101, offset: 0x42101, size: 0x8, addend: 0x0, symName: __ZSt27__uninitialized_default_n_aIPSt6vectorIiSaIiEEmS2_ET_S4_T0_RSaIT1_E, symObjAddr: 0x4C98, symBinAddr: 0x1000099A4, symSize: 0x28 }
  - { offsetInCU: 0x42109, offset: 0x42109, size: 0x8, addend: 0x0, symName: __ZNSt12_Vector_baseISt6vectorIiSaIiEESaIS2_EE11_M_allocateEm, symObjAddr: 0x4CC0, symBinAddr: 0x1000099CC, symSize: 0xEC }
  - { offsetInCU: 0x42164, offset: 0x42164, size: 0x8, addend: 0x0, symName: __ZNKSt6vectorIS_IiSaIiEESaIS1_EE8max_sizeEv, symObjAddr: 0x4C78, symBinAddr: 0x100009984, symSize: 0x20 }
  - { offsetInCU: 0x4216C, offset: 0x4216C, size: 0x8, addend: 0x0, symName: __ZSt27__uninitialized_default_n_aIPSt6vectorIiSaIiEEmS2_ET_S4_T0_RSaIT1_E, symObjAddr: 0x4C98, symBinAddr: 0x1000099A4, symSize: 0x28 }
  - { offsetInCU: 0x4218B, offset: 0x4218B, size: 0x8, addend: 0x0, symName: __ZNSt6vectorIS_IxSaIxEESaIS1_EE11_S_relocateEPS1_S4_S4_RS2_, symObjAddr: 0x4C44, symBinAddr: 0x100009950, symSize: 0x34 }
  - { offsetInCU: 0x42193, offset: 0x42193, size: 0x8, addend: 0x0, symName: __ZNKSt6vectorIS_IiSaIiEESaIS1_EE8max_sizeEv, symObjAddr: 0x4C78, symBinAddr: 0x100009984, symSize: 0x20 }
  - { offsetInCU: 0x421EC, offset: 0x421EC, size: 0x8, addend: 0x0, symName: __ZNSt12_Vector_baseISt6vectorIxSaIxEESaIS2_EE11_M_allocateEm, symObjAddr: 0x4B58, symBinAddr: 0x100009864, symSize: 0xEC }
  - { offsetInCU: 0x421F4, offset: 0x421F4, size: 0x8, addend: 0x0, symName: __ZNSt6vectorIS_IxSaIxEESaIS1_EE11_S_relocateEPS1_S4_S4_RS2_, symObjAddr: 0x4C44, symBinAddr: 0x100009950, symSize: 0x34 }
  - { offsetInCU: 0x4227E, offset: 0x4227E, size: 0x8, addend: 0x0, symName: __ZSt27__uninitialized_default_n_aIPSt6vectorIxSaIxEEmS2_ET_S4_T0_RSaIT1_E, symObjAddr: 0x4B30, symBinAddr: 0x10000983C, symSize: 0x28 }
  - { offsetInCU: 0x42286, offset: 0x42286, size: 0x8, addend: 0x0, symName: __ZNSt12_Vector_baseISt6vectorIxSaIxEESaIS2_EE11_M_allocateEm, symObjAddr: 0x4B58, symBinAddr: 0x100009864, symSize: 0xEC }
  - { offsetInCU: 0x422E1, offset: 0x422E1, size: 0x8, addend: 0x0, symName: __ZNKSt6vectorIS_IxSaIxEESaIS1_EE8max_sizeEv, symObjAddr: 0x4B10, symBinAddr: 0x10000981C, symSize: 0x20 }
  - { offsetInCU: 0x422E9, offset: 0x422E9, size: 0x8, addend: 0x0, symName: __ZSt27__uninitialized_default_n_aIPSt6vectorIxSaIxEEmS2_ET_S4_T0_RSaIT1_E, symObjAddr: 0x4B30, symBinAddr: 0x10000983C, symSize: 0x28 }
  - { offsetInCU: 0x42308, offset: 0x42308, size: 0x8, addend: 0x0, symName: __ZNSt6vectorIS_ISt4pairIxxESaIS1_EESaIS3_EE11_S_relocateEPS3_S6_S6_RS4_, symObjAddr: 0x4ADC, symBinAddr: 0x1000097E8, symSize: 0x34 }
  - { offsetInCU: 0x42310, offset: 0x42310, size: 0x8, addend: 0x0, symName: __ZNKSt6vectorIS_IxSaIxEESaIS1_EE8max_sizeEv, symObjAddr: 0x4B10, symBinAddr: 0x10000981C, symSize: 0x20 }
  - { offsetInCU: 0x42369, offset: 0x42369, size: 0x8, addend: 0x0, symName: __ZNSt12_Vector_baseISt6vectorISt4pairIxxESaIS2_EESaIS4_EE11_M_allocateEm, symObjAddr: 0x49F0, symBinAddr: 0x1000096FC, symSize: 0xEC }
  - { offsetInCU: 0x42371, offset: 0x42371, size: 0x8, addend: 0x0, symName: __ZNSt6vectorIS_ISt4pairIxxESaIS1_EESaIS3_EE11_S_relocateEPS3_S6_S6_RS4_, symObjAddr: 0x4ADC, symBinAddr: 0x1000097E8, symSize: 0x34 }
  - { offsetInCU: 0x423FB, offset: 0x423FB, size: 0x8, addend: 0x0, symName: __ZSt27__uninitialized_default_n_aIPSt6vectorISt4pairIxxESaIS2_EEmS4_ET_S6_T0_RSaIT1_E, symObjAddr: 0x49C8, symBinAddr: 0x1000096D4, symSize: 0x28 }
  - { offsetInCU: 0x42403, offset: 0x42403, size: 0x8, addend: 0x0, symName: __ZNSt12_Vector_baseISt6vectorISt4pairIxxESaIS2_EESaIS4_EE11_M_allocateEm, symObjAddr: 0x49F0, symBinAddr: 0x1000096FC, symSize: 0xEC }
  - { offsetInCU: 0x4245E, offset: 0x4245E, size: 0x8, addend: 0x0, symName: __ZNKSt6vectorIS_ISt4pairIxxESaIS1_EESaIS3_EE8max_sizeEv, symObjAddr: 0x49A8, symBinAddr: 0x1000096B4, symSize: 0x20 }
  - { offsetInCU: 0x42466, offset: 0x42466, size: 0x8, addend: 0x0, symName: __ZSt27__uninitialized_default_n_aIPSt6vectorISt4pairIxxESaIS2_EEmS4_ET_S6_T0_RSaIT1_E, symObjAddr: 0x49C8, symBinAddr: 0x1000096D4, symSize: 0x28 }
  - { offsetInCU: 0x42489, offset: 0x42489, size: 0x8, addend: 0x0, symName: __ZNSt6vectorIxSaIxEE8_M_eraseEN9__gnu_cxx17__normal_iteratorIPxS1_EES5_, symObjAddr: 0x48DC, symBinAddr: 0x1000095E8, symSize: 0xCC }
  - { offsetInCU: 0x42491, offset: 0x42491, size: 0x8, addend: 0x0, symName: __ZNKSt6vectorIS_ISt4pairIxxESaIS1_EESaIS3_EE8max_sizeEv, symObjAddr: 0x49A8, symBinAddr: 0x1000096B4, symSize: 0x20 }
  - { offsetInCU: 0x424D4, offset: 0x424D4, size: 0x8, addend: 0x0, symName: __ZNK9__gnu_cxx17__normal_iteratorIPxSt6vectorIxSaIxEEEplEl, symObjAddr: 0x489C, symBinAddr: 0x1000095A8, symSize: 0x40 }
  - { offsetInCU: 0x424DC, offset: 0x424DC, size: 0x8, addend: 0x0, symName: __ZNSt6vectorIxSaIxEE8_M_eraseEN9__gnu_cxx17__normal_iteratorIPxS1_EES5_, symObjAddr: 0x48DC, symBinAddr: 0x1000095E8, symSize: 0xCC }
  - { offsetInCU: 0x42513, offset: 0x42513, size: 0x8, addend: 0x0, symName: __ZN9__gnu_cxxmiIPKxSt6vectorIxSaIxEEEENS_17__normal_iteratorIT_T0_E15difference_typeERKS9_SC_, symObjAddr: 0x485C, symBinAddr: 0x100009568, symSize: 0x40 }
  - { offsetInCU: 0x4251B, offset: 0x4251B, size: 0x8, addend: 0x0, symName: __ZNK9__gnu_cxx17__normal_iteratorIPxSt6vectorIxSaIxEEEplEl, symObjAddr: 0x489C, symBinAddr: 0x1000095A8, symSize: 0x40 }
  - { offsetInCU: 0x42564, offset: 0x42564, size: 0x8, addend: 0x0, symName: __ZNKSt6vectorIxSaIxEE6cbeginEv, symObjAddr: 0x4838, symBinAddr: 0x100009544, symSize: 0x24 }
  - { offsetInCU: 0x4256C, offset: 0x4256C, size: 0x8, addend: 0x0, symName: __ZN9__gnu_cxxmiIPKxSt6vectorIxSaIxEEEENS_17__normal_iteratorIT_T0_E15difference_typeERKS9_SC_, symObjAddr: 0x485C, symBinAddr: 0x100009568, symSize: 0x40 }
  - { offsetInCU: 0x4258B, offset: 0x4258B, size: 0x8, addend: 0x0, symName: __ZSt8__uniqueIN9__gnu_cxx17__normal_iteratorIPxSt6vectorIxSaIxEEEENS0_5__ops19_Iter_equal_to_iterEET_S9_S9_T0_, symObjAddr: 0x4740, symBinAddr: 0x10000944C, symSize: 0xF8 }
  - { offsetInCU: 0x42593, offset: 0x42593, size: 0x8, addend: 0x0, symName: __ZNKSt6vectorIxSaIxEE6cbeginEv, symObjAddr: 0x4838, symBinAddr: 0x100009544, symSize: 0x24 }
  - { offsetInCU: 0x425FA, offset: 0x425FA, size: 0x8, addend: 0x0, symName: __ZSt6__sortIN9__gnu_cxx17__normal_iteratorIPxSt6vectorIxSaIxEEEENS0_5__ops15_Iter_less_iterEEvT_S9_T0_, symObjAddr: 0x46BC, symBinAddr: 0x1000093C8, symSize: 0x84 }
  - { offsetInCU: 0x42602, offset: 0x42602, size: 0x8, addend: 0x0, symName: __ZSt8__uniqueIN9__gnu_cxx17__normal_iteratorIPxSt6vectorIxSaIxEEEENS0_5__ops19_Iter_equal_to_iterEET_S9_S9_T0_, symObjAddr: 0x4740, symBinAddr: 0x10000944C, symSize: 0xF8 }
  - { offsetInCU: 0x4265C, offset: 0x4265C, size: 0x8, addend: 0x0, symName: __ZNK9__gnu_cxx17__normal_iteratorIPxSt6vectorIxSaIxEEE4baseEv, symObjAddr: 0x46A8, symBinAddr: 0x1000093B4, symSize: 0x14 }
  - { offsetInCU: 0x42664, offset: 0x42664, size: 0x8, addend: 0x0, symName: __ZSt6__sortIN9__gnu_cxx17__normal_iteratorIPxSt6vectorIxSaIxEEEENS0_5__ops15_Iter_less_iterEEvT_S9_T0_, symObjAddr: 0x46BC, symBinAddr: 0x1000093C8, symSize: 0x84 }
  - { offsetInCU: 0x42683, offset: 0x42683, size: 0x8, addend: 0x0, symName: __ZN9__gnu_cxxeqIPxSt6vectorIxSaIxEEEEbRKNS_17__normal_iteratorIT_T0_EESA_, symObjAddr: 0x4664, symBinAddr: 0x100009370, symSize: 0x44 }
  - { offsetInCU: 0x4268B, offset: 0x4268B, size: 0x8, addend: 0x0, symName: __ZNK9__gnu_cxx17__normal_iteratorIPxSt6vectorIxSaIxEEE4baseEv, symObjAddr: 0x46A8, symBinAddr: 0x1000093B4, symSize: 0x14 }
  - { offsetInCU: 0x42737, offset: 0x42737, size: 0x8, addend: 0x0, symName: __ZN9__gnu_cxx17__normal_iteratorIPxSt6vectorIxSaIxEEEC1ERKS1_, symObjAddr: 0x463C, symBinAddr: 0x100009348, symSize: 0x28 }
  - { offsetInCU: 0x4273F, offset: 0x4273F, size: 0x8, addend: 0x0, symName: __ZN9__gnu_cxxeqIPxSt6vectorIxSaIxEEEEbRKNS_17__normal_iteratorIT_T0_EESA_, symObjAddr: 0x4664, symBinAddr: 0x100009370, symSize: 0x44 }
  - { offsetInCU: 0x42728, offset: 0x42728, size: 0x8, addend: 0x0, symName: __ZSt11__bit_widthImEiT_, symObjAddr: 0x460C, symBinAddr: 0x100009318, symSize: 0x30 }
  - { offsetInCU: 0x42730, offset: 0x42730, size: 0x8, addend: 0x0, symName: __ZN9__gnu_cxx17__normal_iteratorIPxSt6vectorIxSaIxEEEC1ERKS1_, symObjAddr: 0x463C, symBinAddr: 0x100009348, symSize: 0x28 }
  - { offsetInCU: 0x427AB, offset: 0x427AB, size: 0x8, addend: 0x0, symName: __ZNSt12_Vector_baseISt6vectorIiSaIiEESaIS2_EE19_M_get_Tp_allocatorEv, symObjAddr: 0x45F8, symBinAddr: 0x100009304, symSize: 0x14 }
  - { offsetInCU: 0x427B3, offset: 0x427B3, size: 0x8, addend: 0x0, symName: __ZSt11__bit_widthImEiT_, symObjAddr: 0x460C, symBinAddr: 0x100009318, symSize: 0x30 }
  - { offsetInCU: 0x427D6, offset: 0x427D6, size: 0x8, addend: 0x0, symName: __ZNSt12_Vector_baseISt6vectorIiSaIiEESaIS2_EE13_M_deallocateEPS2_m, symObjAddr: 0x4568, symBinAddr: 0x100009274, symSize: 0x90 }
  - { offsetInCU: 0x427DE, offset: 0x427DE, size: 0x8, addend: 0x0, symName: __ZNSt12_Vector_baseISt6vectorIiSaIiEESaIS2_EE19_M_get_Tp_allocatorEv, symObjAddr: 0x45F8, symBinAddr: 0x100009304, symSize: 0x14 }
  - { offsetInCU: 0x428EC, offset: 0x428EC, size: 0x8, addend: 0x0, symName: __ZNSt12_Vector_baseISt6vectorIiSaIiEESaIS2_EE17_Vector_impl_dataC2Ev, symObjAddr: 0x453C, symBinAddr: 0x100009248, symSize: 0x2C }
  - { offsetInCU: 0x428F4, offset: 0x428F4, size: 0x8, addend: 0x0, symName: __ZNSt12_Vector_baseISt6vectorIiSaIiEESaIS2_EE13_M_deallocateEPS2_m, symObjAddr: 0x4568, symBinAddr: 0x100009274, symSize: 0x90 }
  - { offsetInCU: 0x42923, offset: 0x42923, size: 0x8, addend: 0x0, symName: __ZNSt12_Vector_baseISt6vectorISt4pairIxxESaIS2_EESaIS4_EE19_M_get_Tp_allocatorEv, symObjAddr: 0x4528, symBinAddr: 0x100009234, symSize: 0x14 }
  - { offsetInCU: 0x4292B, offset: 0x4292B, size: 0x8, addend: 0x0, symName: __ZNSt12_Vector_baseISt6vectorIiSaIiEESaIS2_EE17_Vector_impl_dataC2Ev, symObjAddr: 0x453C, symBinAddr: 0x100009248, symSize: 0x2C }
  - { offsetInCU: 0x4294E, offset: 0x4294E, size: 0x8, addend: 0x0, symName: __ZNSt12_Vector_baseISt6vectorISt4pairIxxESaIS2_EESaIS4_EE13_M_deallocateEPS4_m, symObjAddr: 0x4498, symBinAddr: 0x1000091A4, symSize: 0x90 }
  - { offsetInCU: 0x42956, offset: 0x42956, size: 0x8, addend: 0x0, symName: __ZNSt12_Vector_baseISt6vectorISt4pairIxxESaIS2_EESaIS4_EE19_M_get_Tp_allocatorEv, symObjAddr: 0x4528, symBinAddr: 0x100009234, symSize: 0x14 }
  - { offsetInCU: 0x42A70, offset: 0x42A70, size: 0x8, addend: 0x0, symName: __ZNSt12_Vector_baseISt6vectorISt4pairIxxESaIS2_EESaIS4_EE17_Vector_impl_dataC2Ev, symObjAddr: 0x446C, symBinAddr: 0x100009178, symSize: 0x2C }
  - { offsetInCU: 0x42A78, offset: 0x42A78, size: 0x8, addend: 0x0, symName: __ZNSt12_Vector_baseISt6vectorISt4pairIxxESaIS2_EESaIS4_EE13_M_deallocateEPS4_m, symObjAddr: 0x4498, symBinAddr: 0x1000091A4, symSize: 0x90 }
  - { offsetInCU: 0x42A9B, offset: 0x42A9B, size: 0x8, addend: 0x0, symName: __ZNSt12_Vector_baseISt6vectorIxSaIxEESaIS2_EE19_M_get_Tp_allocatorEv, symObjAddr: 0x4458, symBinAddr: 0x100009164, symSize: 0x14 }
  - { offsetInCU: 0x42AA3, offset: 0x42AA3, size: 0x8, addend: 0x0, symName: __ZNSt12_Vector_baseISt6vectorISt4pairIxxESaIS2_EESaIS4_EE17_Vector_impl_dataC2Ev, symObjAddr: 0x446C, symBinAddr: 0x100009178, symSize: 0x2C }
  - { offsetInCU: 0x42AC6, offset: 0x42AC6, size: 0x8, addend: 0x0, symName: __ZNSt12_Vector_baseISt6vectorIxSaIxEESaIS2_EE13_M_deallocateEPS2_m, symObjAddr: 0x43C8, symBinAddr: 0x1000090D4, symSize: 0x90 }
  - { offsetInCU: 0x42ACE, offset: 0x42ACE, size: 0x8, addend: 0x0, symName: __ZNSt12_Vector_baseISt6vectorIxSaIxEESaIS2_EE19_M_get_Tp_allocatorEv, symObjAddr: 0x4458, symBinAddr: 0x100009164, symSize: 0x14 }
  - { offsetInCU: 0x42BDC, offset: 0x42BDC, size: 0x8, addend: 0x0, symName: __ZNSt12_Vector_baseISt6vectorIxSaIxEESaIS2_EE17_Vector_impl_dataC2Ev, symObjAddr: 0x439C, symBinAddr: 0x1000090A8, symSize: 0x2C }
  - { offsetInCU: 0x42BE4, offset: 0x42BE4, size: 0x8, addend: 0x0, symName: __ZNSt12_Vector_baseISt6vectorIxSaIxEESaIS2_EE13_M_deallocateEPS2_m, symObjAddr: 0x43C8, symBinAddr: 0x1000090D4, symSize: 0x90 }
  - { offsetInCU: 0x42C13, offset: 0x42C13, size: 0x8, addend: 0x0, symName: __ZNSt12_Vector_baseIxSaIxEE19_M_get_Tp_allocatorEv, symObjAddr: 0x4388, symBinAddr: 0x100009094, symSize: 0x14 }
  - { offsetInCU: 0x42C1B, offset: 0x42C1B, size: 0x8, addend: 0x0, symName: __ZNSt12_Vector_baseISt6vectorIxSaIxEESaIS2_EE17_Vector_impl_dataC2Ev, symObjAddr: 0x439C, symBinAddr: 0x1000090A8, symSize: 0x2C }
  - { offsetInCU: 0x42C3E, offset: 0x42C3E, size: 0x8, addend: 0x0, symName: __ZNSt12_Vector_baseIxSaIxEE13_M_deallocateEPxm, symObjAddr: 0x42F8, symBinAddr: 0x100009004, symSize: 0x90 }
  - { offsetInCU: 0x42C46, offset: 0x42C46, size: 0x8, addend: 0x0, symName: __ZNSt12_Vector_baseIxSaIxEE19_M_get_Tp_allocatorEv, symObjAddr: 0x4388, symBinAddr: 0x100009094, symSize: 0x14 }
  - { offsetInCU: 0x42D42, offset: 0x42D42, size: 0x8, addend: 0x0, symName: __ZNSt12_Vector_baseIxSaIxEE17_Vector_impl_dataC2Ev, symObjAddr: 0x42CC, symBinAddr: 0x100008FD8, symSize: 0x2C }
  - { offsetInCU: 0x42D4A, offset: 0x42D4A, size: 0x8, addend: 0x0, symName: __ZNSt12_Vector_baseIxSaIxEE13_M_deallocateEPxm, symObjAddr: 0x42F8, symBinAddr: 0x100009004, symSize: 0x90 }
  - { offsetInCU: 0x42D4C, offset: 0x42D4C, size: 0x8, addend: 0x0, symName: __ZSt13__lower_boundIN9__gnu_cxx17__normal_iteratorIPSt4pairIxxESt6vectorIS3_SaIS3_EEEES3_NS0_5__ops14_Iter_less_valEET_SB_SB_RKT0_T1_, symObjAddr: 0x41C0, symBinAddr: 0x100008ECC, symSize: 0x10C }
  - { offsetInCU: 0x42D54, offset: 0x42D54, size: 0x8, addend: 0x0, symName: __ZNSt12_Vector_baseIxSaIxEE17_Vector_impl_dataC2Ev, symObjAddr: 0x42CC, symBinAddr: 0x100008FD8, symSize: 0x2C }
  - { offsetInCU: 0x42F5D, offset: 0x42F5D, size: 0x8, addend: 0x0, symName: __ZNSt4pairIxxEC1IRxxEEOT_OT0_, symObjAddr: 0x4178, symBinAddr: 0x100008E84, symSize: 0x48 }
  - { offsetInCU: 0x42F65, offset: 0x42F65, size: 0x8, addend: 0x0, symName: __ZSt13__lower_boundIN9__gnu_cxx17__normal_iteratorIPSt4pairIxxESt6vectorIS3_SaIS3_EEEES3_NS0_5__ops14_Iter_less_valEET_SB_SB_RKT0_T1_, symObjAddr: 0x41C0, symBinAddr: 0x100008ECC, symSize: 0x10C }
  - { offsetInCU: 0x42F90, offset: 0x42F90, size: 0x8, addend: 0x0, symName: __ZSt7forwardIxEOT_RNSt16remove_referenceIS0_E4typeE, symObjAddr: 0x4164, symBinAddr: 0x100008E70, symSize: 0x14 }
  - { offsetInCU: 0x42F98, offset: 0x42F98, size: 0x8, addend: 0x0, symName: __ZNSt4pairIxxEC1IRxxEEOT_OT0_, symObjAddr: 0x4178, symBinAddr: 0x100008E84, symSize: 0x48 }
  - { offsetInCU: 0x42FC6, offset: 0x42FC6, size: 0x8, addend: 0x0, symName: __ZNSt6vectorIxSaIxEE17_M_realloc_insertIJRKxEEEvN9__gnu_cxx17__normal_iteratorIPxS1_EEDpOT_, symObjAddr: 0x3FD8, symBinAddr: 0x100008CE4, symSize: 0x18C }
  - { offsetInCU: 0x42FCE, offset: 0x42FCE, size: 0x8, addend: 0x0, symName: __ZSt7forwardIxEOT_RNSt16remove_referenceIS0_E4typeE, symObjAddr: 0x4164, symBinAddr: 0x100008E70, symSize: 0x14 }
  - { offsetInCU: 0x43101, offset: 0x43101, size: 0x8, addend: 0x0, symName: __ZNSt6vectorIxSaIxEE14_M_fill_insertEN9__gnu_cxx17__normal_iteratorIPxS1_EEmRKx, symObjAddr: 0x3B8C, symBinAddr: 0x100008898, symSize: 0x44C }
  - { offsetInCU: 0x43109, offset: 0x43109, size: 0x8, addend: 0x0, symName: __ZNSt6vectorIxSaIxEE17_M_realloc_insertIJRKxEEEvN9__gnu_cxx17__normal_iteratorIPxS1_EEDpOT_, symObjAddr: 0x3FD8, symBinAddr: 0x100008CE4, symSize: 0x18C }
  - { offsetInCU: 0x432DA, offset: 0x432DA, size: 0x8, addend: 0x0, symName: __ZNKSt6vectorIxSaIxEE12_M_check_lenEmPKc, symObjAddr: 0x3ABC, symBinAddr: 0x1000087C8, symSize: 0xD0 }
  - { offsetInCU: 0x432E2, offset: 0x432E2, size: 0x8, addend: 0x0, symName: __ZNSt6vectorIxSaIxEE14_M_fill_insertEN9__gnu_cxx17__normal_iteratorIPxS1_EEmRKx, symObjAddr: 0x3B8C, symBinAddr: 0x100008898, symSize: 0x44C }
  - { offsetInCU: 0x43338, offset: 0x43338, size: 0x8, addend: 0x0, symName: __ZNSt6vectorIxSaIxEE16_Temporary_value6_M_valEv, symObjAddr: 0x3AA4, symBinAddr: 0x1000087B0, symSize: 0x18 }
  - { offsetInCU: 0x43340, offset: 0x43340, size: 0x8, addend: 0x0, symName: __ZNKSt6vectorIxSaIxEE12_M_check_lenEmPKc, symObjAddr: 0x3ABC, symBinAddr: 0x1000087C8, symSize: 0xD0 }
  - { offsetInCU: 0x43363, offset: 0x43363, size: 0x8, addend: 0x0, symName: __ZNSt6vectorIiSaIiEE15_M_erase_at_endEPi, symObjAddr: 0x3A1C, symBinAddr: 0x100008728, symSize: 0x88 }
  - { offsetInCU: 0x4336B, offset: 0x4336B, size: 0x8, addend: 0x0, symName: __ZNSt6vectorIxSaIxEE16_Temporary_value6_M_valEv, symObjAddr: 0x3AA4, symBinAddr: 0x1000087B0, symSize: 0x18 }
  - { offsetInCU: 0x433F9, offset: 0x433F9, size: 0x8, addend: 0x0, symName: __ZNSt6vectorIiSaIiEE17_M_default_appendEm, symObjAddr: 0x381C, symBinAddr: 0x100008528, symSize: 0x200 }
  - { offsetInCU: 0x43401, offset: 0x43401, size: 0x8, addend: 0x0, symName: __ZNSt6vectorIiSaIiEE15_M_erase_at_endEPi, symObjAddr: 0x3A1C, symBinAddr: 0x100008728, symSize: 0x88 }
  - { offsetInCU: 0x434A9, offset: 0x434A9, size: 0x8, addend: 0x0, symName: __ZNKSt6vectorIiSaIiEE12_M_check_lenEmPKc, symObjAddr: 0x374C, symBinAddr: 0x100008458, symSize: 0xD0 }
  - { offsetInCU: 0x434B1, offset: 0x434B1, size: 0x8, addend: 0x0, symName: __ZNSt6vectorIiSaIiEE17_M_default_appendEm, symObjAddr: 0x381C, symBinAddr: 0x100008528, symSize: 0x200 }
  - { offsetInCU: 0x43507, offset: 0x43507, size: 0x8, addend: 0x0, symName: __ZNKSt6vectorIiSaIiEE4sizeEv, symObjAddr: 0x3724, symBinAddr: 0x100008430, symSize: 0x28 }
  - { offsetInCU: 0x4350F, offset: 0x4350F, size: 0x8, addend: 0x0, symName: __ZNKSt6vectorIiSaIiEE12_M_check_lenEmPKc, symObjAddr: 0x374C, symBinAddr: 0x100008458, symSize: 0xD0 }
  - { offsetInCU: 0x4352E, offset: 0x4352E, size: 0x8, addend: 0x0, symName: __ZSt7__mergeIN9__gnu_cxx17__normal_iteratorIPSt4pairIxxESt6vectorIS3_SaIS3_EEEES8_S8_NS0_5__ops15_Iter_less_iterEET1_T_SC_T0_SD_SB_T2_, symObjAddr: 0x35FC, symBinAddr: 0x100008308, symSize: 0x128 }
  - { offsetInCU: 0x43536, offset: 0x43536, size: 0x8, addend: 0x0, symName: __ZNKSt6vectorIiSaIiEE4sizeEv, symObjAddr: 0x3724, symBinAddr: 0x100008430, symSize: 0x28 }
  - { offsetInCU: 0x435D5, offset: 0x435D5, size: 0x8, addend: 0x0, symName: __ZNSt6vectorISt4pairIxxESaIS1_EE15_M_erase_at_endEPS1_, symObjAddr: 0x3574, symBinAddr: 0x100008280, symSize: 0x88 }
  - { offsetInCU: 0x435DD, offset: 0x435DD, size: 0x8, addend: 0x0, symName: __ZSt7__mergeIN9__gnu_cxx17__normal_iteratorIPSt4pairIxxESt6vectorIS3_SaIS3_EEEES8_S8_NS0_5__ops15_Iter_less_iterEET1_T_SC_T0_SD_SB_T2_, symObjAddr: 0x35FC, symBinAddr: 0x100008308, symSize: 0x128 }
  - { offsetInCU: 0x4366B, offset: 0x4366B, size: 0x8, addend: 0x0, symName: __ZNSt6vectorISt4pairIxxESaIS1_EE17_M_default_appendEm, symObjAddr: 0x3374, symBinAddr: 0x100008080, symSize: 0x200 }
  - { offsetInCU: 0x43673, offset: 0x43673, size: 0x8, addend: 0x0, symName: __ZNSt6vectorISt4pairIxxESaIS1_EE15_M_erase_at_endEPS1_, symObjAddr: 0x3574, symBinAddr: 0x100008280, symSize: 0x88 }
  - { offsetInCU: 0x43717, offset: 0x43717, size: 0x8, addend: 0x0, symName: __ZSt6__sortIN9__gnu_cxx17__normal_iteratorIPSt4pairIxxESt6vectorIS3_SaIS3_EEEENS0_5__ops15_Iter_less_iterEEvT_SB_T0_, symObjAddr: 0x32F0, symBinAddr: 0x100007FFC, symSize: 0x84 }
  - { offsetInCU: 0x4371F, offset: 0x4371F, size: 0x8, addend: 0x0, symName: __ZNSt6vectorISt4pairIxxESaIS1_EE17_M_default_appendEm, symObjAddr: 0x3374, symBinAddr: 0x100008080, symSize: 0x200 }
  - { offsetInCU: 0x43779, offset: 0x43779, size: 0x8, addend: 0x0, symName: __ZNK9__gnu_cxx17__normal_iteratorIPSt4pairIxxESt6vectorIS2_SaIS2_EEE4baseEv, symObjAddr: 0x32DC, symBinAddr: 0x100007FE8, symSize: 0x14 }
  - { offsetInCU: 0x43781, offset: 0x43781, size: 0x8, addend: 0x0, symName: __ZSt6__sortIN9__gnu_cxx17__normal_iteratorIPSt4pairIxxESt6vectorIS3_SaIS3_EEEENS0_5__ops15_Iter_less_iterEEvT_SB_T0_, symObjAddr: 0x32F0, symBinAddr: 0x100007FFC, symSize: 0x84 }
  - { offsetInCU: 0x437A0, offset: 0x437A0, size: 0x8, addend: 0x0, symName: __ZN9__gnu_cxxeqIPSt4pairIxxESt6vectorIS2_SaIS2_EEEEbRKNS_17__normal_iteratorIT_T0_EESC_, symObjAddr: 0x3298, symBinAddr: 0x100007FA4, symSize: 0x44 }
  - { offsetInCU: 0x437A8, offset: 0x437A8, size: 0x8, addend: 0x0, symName: __ZNK9__gnu_cxx17__normal_iteratorIPSt4pairIxxESt6vectorIS2_SaIS2_EEE4baseEv, symObjAddr: 0x32DC, symBinAddr: 0x100007FE8, symSize: 0x14 }
  - { offsetInCU: 0x43862, offset: 0x43862, size: 0x8, addend: 0x0, symName: __ZN9__gnu_cxx17__normal_iteratorIPSt4pairIxxESt6vectorIS2_SaIS2_EEEC1ERKS3_, symObjAddr: 0x3270, symBinAddr: 0x100007F7C, symSize: 0x28 }
  - { offsetInCU: 0x4386A, offset: 0x4386A, size: 0x8, addend: 0x0, symName: __ZN9__gnu_cxxeqIPSt4pairIxxESt6vectorIS2_SaIS2_EEEEbRKNS_17__normal_iteratorIT_T0_EESC_, symObjAddr: 0x3298, symBinAddr: 0x100007FA4, symSize: 0x44 }
  - { offsetInCU: 0x43849, offset: 0x43849, size: 0x8, addend: 0x0, symName: __ZNSt6vectorIxSaIxEE15_M_erase_at_endEPx, symObjAddr: 0x31E8, symBinAddr: 0x100007EF4, symSize: 0x88 }
  - { offsetInCU: 0x43851, offset: 0x43851, size: 0x8, addend: 0x0, symName: __ZN9__gnu_cxx17__normal_iteratorIPSt4pairIxxESt6vectorIS2_SaIS2_EEEC1ERKS3_, symObjAddr: 0x3270, symBinAddr: 0x100007F7C, symSize: 0x28 }
  - { offsetInCU: 0x438DF, offset: 0x438DF, size: 0x8, addend: 0x0, symName: __ZNSt6vectorISt4pairIxxESaIS1_EE4backEv, symObjAddr: 0x31B0, symBinAddr: 0x100007EBC, symSize: 0x38 }
  - { offsetInCU: 0x438E7, offset: 0x438E7, size: 0x8, addend: 0x0, symName: __ZNSt6vectorIxSaIxEE15_M_erase_at_endEPx, symObjAddr: 0x31E8, symBinAddr: 0x100007EF4, symSize: 0x88 }
  - { offsetInCU: 0x4390A, offset: 0x4390A, size: 0x8, addend: 0x0, symName: __ZNSt6vectorISt4pairIxxESaIS1_EE17_M_realloc_insertIJRxS5_EEEvN9__gnu_cxx17__normal_iteratorIPS1_S3_EEDpOT_, symObjAddr: 0x2FF8, symBinAddr: 0x100007D04, symSize: 0x1B8 }
  - { offsetInCU: 0x43912, offset: 0x43912, size: 0x8, addend: 0x0, symName: __ZNSt6vectorISt4pairIxxESaIS1_EE4backEv, symObjAddr: 0x31B0, symBinAddr: 0x100007EBC, symSize: 0x38 }
  - { offsetInCU: 0x43A1A, offset: 0x43A1A, size: 0x8, addend: 0x0, symName: __ZNKSt6vectorISt4pairIxxESaIS1_EE12_M_check_lenEmPKc, symObjAddr: 0x2F28, symBinAddr: 0x100007C34, symSize: 0xD0 }
  - { offsetInCU: 0x43A22, offset: 0x43A22, size: 0x8, addend: 0x0, symName: __ZNSt6vectorISt4pairIxxESaIS1_EE17_M_realloc_insertIJRxS5_EEEvN9__gnu_cxx17__normal_iteratorIPS1_S3_EEDpOT_, symObjAddr: 0x2FF8, symBinAddr: 0x100007D04, symSize: 0x1B8 }
  - { offsetInCU: 0x43AC9, offset: 0x43AC9, size: 0x8, addend: 0x0, symName: __ZSt7forwardIRxEOT_RNSt16remove_referenceIS1_E4typeE, symObjAddr: 0x2F14, symBinAddr: 0x100007C20, symSize: 0x14 }
  - { offsetInCU: 0x43AD1, offset: 0x43AD1, size: 0x8, addend: 0x0, symName: __ZNKSt6vectorISt4pairIxxESaIS1_EE12_M_check_lenEmPKc, symObjAddr: 0x2F28, symBinAddr: 0x100007C34, symSize: 0xD0 }
  - { offsetInCU: 0x43AFB, offset: 0x43AFB, size: 0x8, addend: 0x0, symName: __ZN9__gnu_cxxmiIPxSt6vectorIxSaIxEEEENS_17__normal_iteratorIT_T0_E15difference_typeERKS8_SB_, symObjAddr: 0x2ED4, symBinAddr: 0x100007BE0, symSize: 0x40 }
  - { offsetInCU: 0x43B03, offset: 0x43B03, size: 0x8, addend: 0x0, symName: __ZSt7forwardIRxEOT_RNSt16remove_referenceIS1_E4typeE, symObjAddr: 0x2F14, symBinAddr: 0x100007C20, symSize: 0x14 }
  - { offsetInCU: 0x43B48, offset: 0x43B48, size: 0x8, addend: 0x0, symName: __ZSt11lower_boundIN9__gnu_cxx17__normal_iteratorIPxSt6vectorIxSaIxEEEExET_S7_S7_RKT0_, symObjAddr: 0x2E98, symBinAddr: 0x100007BA4, symSize: 0x3C }
  - { offsetInCU: 0x43B50, offset: 0x43B50, size: 0x8, addend: 0x0, symName: __ZN9__gnu_cxxmiIPxSt6vectorIxSaIxEEEENS_17__normal_iteratorIT_T0_E15difference_typeERKS8_SB_, symObjAddr: 0x2ED4, symBinAddr: 0x100007BE0, symSize: 0x40 }
  - { offsetInCU: 0x43BAA, offset: 0x43BAA, size: 0x8, addend: 0x0, symName: __ZNSt6vectorIS_IiSaIiEESaIS1_EE15_M_erase_at_endEPS1_, symObjAddr: 0x2E04, symBinAddr: 0x100007B10, symSize: 0x94 }
  - { offsetInCU: 0x43BB2, offset: 0x43BB2, size: 0x8, addend: 0x0, symName: __ZSt11lower_boundIN9__gnu_cxx17__normal_iteratorIPxSt6vectorIxSaIxEEEExET_S7_S7_RKT0_, symObjAddr: 0x2E98, symBinAddr: 0x100007BA4, symSize: 0x3C }
  - { offsetInCU: 0x43C40, offset: 0x43C40, size: 0x8, addend: 0x0, symName: __ZNSt6vectorIS_IiSaIiEESaIS1_EE17_M_default_appendEm, symObjAddr: 0x2BBC, symBinAddr: 0x1000078C8, symSize: 0x248 }
  - { offsetInCU: 0x43C48, offset: 0x43C48, size: 0x8, addend: 0x0, symName: __ZNSt6vectorIS_IiSaIiEESaIS1_EE15_M_erase_at_endEPS1_, symObjAddr: 0x2E04, symBinAddr: 0x100007B10, symSize: 0x94 }
  - { offsetInCU: 0x43CF0, offset: 0x43CF0, size: 0x8, addend: 0x0, symName: __ZNKSt6vectorIS_IiSaIiEESaIS1_EE12_M_check_lenEmPKc, symObjAddr: 0x2AEC, symBinAddr: 0x1000077F8, symSize: 0xD0 }
  - { offsetInCU: 0x43CF8, offset: 0x43CF8, size: 0x8, addend: 0x0, symName: __ZNSt6vectorIS_IiSaIiEESaIS1_EE17_M_default_appendEm, symObjAddr: 0x2BBC, symBinAddr: 0x1000078C8, symSize: 0x248 }
  - { offsetInCU: 0x43D4E, offset: 0x43D4E, size: 0x8, addend: 0x0, symName: __ZNKSt6vectorIS_IiSaIiEESaIS1_EE4sizeEv, symObjAddr: 0x2AB8, symBinAddr: 0x1000077C4, symSize: 0x34 }
  - { offsetInCU: 0x43D56, offset: 0x43D56, size: 0x8, addend: 0x0, symName: __ZNKSt6vectorIS_IiSaIiEESaIS1_EE12_M_check_lenEmPKc, symObjAddr: 0x2AEC, symBinAddr: 0x1000077F8, symSize: 0xD0 }
  - { offsetInCU: 0x43D79, offset: 0x43D79, size: 0x8, addend: 0x0, symName: __ZNSt6vectorIS_IxSaIxEESaIS1_EE15_M_erase_at_endEPS1_, symObjAddr: 0x2A24, symBinAddr: 0x100007730, symSize: 0x94 }
  - { offsetInCU: 0x43D81, offset: 0x43D81, size: 0x8, addend: 0x0, symName: __ZNKSt6vectorIS_IiSaIiEESaIS1_EE4sizeEv, symObjAddr: 0x2AB8, symBinAddr: 0x1000077C4, symSize: 0x34 }
  - { offsetInCU: 0x43E0F, offset: 0x43E0F, size: 0x8, addend: 0x0, symName: __ZNSt6vectorIS_IxSaIxEESaIS1_EE17_M_default_appendEm, symObjAddr: 0x27DC, symBinAddr: 0x1000074E8, symSize: 0x248 }
  - { offsetInCU: 0x43E17, offset: 0x43E17, size: 0x8, addend: 0x0, symName: __ZNSt6vectorIS_IxSaIxEESaIS1_EE15_M_erase_at_endEPS1_, symObjAddr: 0x2A24, symBinAddr: 0x100007730, symSize: 0x94 }
  - { offsetInCU: 0x43EBF, offset: 0x43EBF, size: 0x8, addend: 0x0, symName: __ZNKSt6vectorIS_IxSaIxEESaIS1_EE12_M_check_lenEmPKc, symObjAddr: 0x270C, symBinAddr: 0x100007418, symSize: 0xD0 }
  - { offsetInCU: 0x43EC7, offset: 0x43EC7, size: 0x8, addend: 0x0, symName: __ZNSt6vectorIS_IxSaIxEESaIS1_EE17_M_default_appendEm, symObjAddr: 0x27DC, symBinAddr: 0x1000074E8, symSize: 0x248 }
  - { offsetInCU: 0x43F1D, offset: 0x43F1D, size: 0x8, addend: 0x0, symName: __ZNKSt6vectorIS_IxSaIxEESaIS1_EE4sizeEv, symObjAddr: 0x26D8, symBinAddr: 0x1000073E4, symSize: 0x34 }
  - { offsetInCU: 0x43F25, offset: 0x43F25, size: 0x8, addend: 0x0, symName: __ZNKSt6vectorIS_IxSaIxEESaIS1_EE12_M_check_lenEmPKc, symObjAddr: 0x270C, symBinAddr: 0x100007418, symSize: 0xD0 }
  - { offsetInCU: 0x43F48, offset: 0x43F48, size: 0x8, addend: 0x0, symName: __ZNSt6vectorIS_ISt4pairIxxESaIS1_EESaIS3_EE15_M_erase_at_endEPS3_, symObjAddr: 0x2644, symBinAddr: 0x100007350, symSize: 0x94 }
  - { offsetInCU: 0x43F50, offset: 0x43F50, size: 0x8, addend: 0x0, symName: __ZNKSt6vectorIS_IxSaIxEESaIS1_EE4sizeEv, symObjAddr: 0x26D8, symBinAddr: 0x1000073E4, symSize: 0x34 }
  - { offsetInCU: 0x43FDE, offset: 0x43FDE, size: 0x8, addend: 0x0, symName: __ZNSt6vectorIS_ISt4pairIxxESaIS1_EESaIS3_EE17_M_default_appendEm, symObjAddr: 0x23FC, symBinAddr: 0x100007108, symSize: 0x248 }
  - { offsetInCU: 0x43FE6, offset: 0x43FE6, size: 0x8, addend: 0x0, symName: __ZNSt6vectorIS_ISt4pairIxxESaIS1_EESaIS3_EE15_M_erase_at_endEPS3_, symObjAddr: 0x2644, symBinAddr: 0x100007350, symSize: 0x94 }
  - { offsetInCU: 0x4408E, offset: 0x4408E, size: 0x8, addend: 0x0, symName: __ZNKSt6vectorIS_ISt4pairIxxESaIS1_EESaIS3_EE12_M_check_lenEmPKc, symObjAddr: 0x232C, symBinAddr: 0x100007038, symSize: 0xD0 }
  - { offsetInCU: 0x44096, offset: 0x44096, size: 0x8, addend: 0x0, symName: __ZNSt6vectorIS_ISt4pairIxxESaIS1_EESaIS3_EE17_M_default_appendEm, symObjAddr: 0x23FC, symBinAddr: 0x100007108, symSize: 0x248 }
  - { offsetInCU: 0x440EC, offset: 0x440EC, size: 0x8, addend: 0x0, symName: __ZNSt6vectorIxSaIxEE5eraseEN9__gnu_cxx17__normal_iteratorIPKxS1_EES6_, symObjAddr: 0x22AC, symBinAddr: 0x100006FB8, symSize: 0x80 }
  - { offsetInCU: 0x440F4, offset: 0x440F4, size: 0x8, addend: 0x0, symName: __ZNKSt6vectorIS_ISt4pairIxxESaIS1_EESaIS3_EE12_M_check_lenEmPKc, symObjAddr: 0x232C, symBinAddr: 0x100007038, symSize: 0xD0 }
  - { offsetInCU: 0x441D6, offset: 0x441D6, size: 0x8, addend: 0x0, symName: __ZN9__gnu_cxx17__normal_iteratorIPKxSt6vectorIxSaIxEEEC1IPxvEERKNS0_IT_S5_EE, symObjAddr: 0x227C, symBinAddr: 0x100006F88, symSize: 0x30 }
  - { offsetInCU: 0x441DE, offset: 0x441DE, size: 0x8, addend: 0x0, symName: __ZNSt6vectorIxSaIxEE5eraseEN9__gnu_cxx17__normal_iteratorIPKxS1_EES6_, symObjAddr: 0x22AC, symBinAddr: 0x100006FB8, symSize: 0x80 }
  - { offsetInCU: 0x441C1, offset: 0x441C1, size: 0x8, addend: 0x0, symName: __ZSt6uniqueIN9__gnu_cxx17__normal_iteratorIPxSt6vectorIxSaIxEEEEET_S7_S7_, symObjAddr: 0x2248, symBinAddr: 0x100006F54, symSize: 0x34 }
  - { offsetInCU: 0x441C9, offset: 0x441C9, size: 0x8, addend: 0x0, symName: __ZN9__gnu_cxx17__normal_iteratorIPKxSt6vectorIxSaIxEEEC1IPxvEERKNS0_IT_S5_EE, symObjAddr: 0x227C, symBinAddr: 0x100006F88, symSize: 0x30 }
  - { offsetInCU: 0x44205, offset: 0x44205, size: 0x8, addend: 0x0, symName: __ZSt4sortIN9__gnu_cxx17__normal_iteratorIPxSt6vectorIxSaIxEEEEEvT_S7_, symObjAddr: 0x2210, symBinAddr: 0x100006F1C, symSize: 0x38 }
  - { offsetInCU: 0x4420D, offset: 0x4420D, size: 0x8, addend: 0x0, symName: __ZSt6uniqueIN9__gnu_cxx17__normal_iteratorIPxSt6vectorIxSaIxEEEEET_S7_S7_, symObjAddr: 0x2248, symBinAddr: 0x100006F54, symSize: 0x34 }
  - { offsetInCU: 0x4424D, offset: 0x4424D, size: 0x8, addend: 0x0, symName: __ZNSt6vectorIxSaIxEE3endEv, symObjAddr: 0x21E8, symBinAddr: 0x100006EF4, symSize: 0x28 }
  - { offsetInCU: 0x44255, offset: 0x44255, size: 0x8, addend: 0x0, symName: __ZSt4sortIN9__gnu_cxx17__normal_iteratorIPxSt6vectorIxSaIxEEEEEvT_S7_, symObjAddr: 0x2210, symBinAddr: 0x100006F1C, symSize: 0x38 }
  - { offsetInCU: 0x44278, offset: 0x44278, size: 0x8, addend: 0x0, symName: __ZNSt6vectorIxSaIxEE5beginEv, symObjAddr: 0x21C4, symBinAddr: 0x100006ED0, symSize: 0x24 }
  - { offsetInCU: 0x44280, offset: 0x44280, size: 0x8, addend: 0x0, symName: __ZNSt6vectorIxSaIxEE3endEv, symObjAddr: 0x21E8, symBinAddr: 0x100006EF4, symSize: 0x28 }
  - { offsetInCU: 0x442A6, offset: 0x442A6, size: 0x8, addend: 0x0, symName: __ZSt7forwardIiEOT_RNSt16remove_referenceIS0_E4typeE, symObjAddr: 0x21B0, symBinAddr: 0x100006EBC, symSize: 0x14 }
  - { offsetInCU: 0x442AE, offset: 0x442AE, size: 0x8, addend: 0x0, symName: __ZNSt6vectorIxSaIxEE5beginEv, symObjAddr: 0x21C4, symBinAddr: 0x100006ED0, symSize: 0x24 }
  - { offsetInCU: 0x44322, offset: 0x44322, size: 0x8, addend: 0x0, symName: __ZNSt6vectorIS_IiSaIiEESaIS1_EED1Ev, symObjAddr: 0x2154, symBinAddr: 0x100006E60, symSize: 0x5C }
  - { offsetInCU: 0x4432A, offset: 0x4432A, size: 0x8, addend: 0x0, symName: __ZSt7forwardIiEOT_RNSt16remove_referenceIS0_E4typeE, symObjAddr: 0x21B0, symBinAddr: 0x100006EBC, symSize: 0x14 }
  - { offsetInCU: 0x443B2, offset: 0x443B2, size: 0x8, addend: 0x0, symName: __ZNSt12_Vector_baseISt6vectorIiSaIiEESaIS2_EED2Ev, symObjAddr: 0x20F8, symBinAddr: 0x100006E04, symSize: 0x5C }
  - { offsetInCU: 0x443BA, offset: 0x443BA, size: 0x8, addend: 0x0, symName: __ZNSt6vectorIS_IiSaIiEESaIS1_EED1Ev, symObjAddr: 0x2154, symBinAddr: 0x100006E60, symSize: 0x5C }
  - { offsetInCU: 0x44423, offset: 0x44423, size: 0x8, addend: 0x0, symName: __ZNSt12_Vector_baseISt6vectorIiSaIiEESaIS2_EE12_Vector_implC1Ev, symObjAddr: 0x20C0, symBinAddr: 0x100006DCC, symSize: 0x38 }
  - { offsetInCU: 0x4442B, offset: 0x4442B, size: 0x8, addend: 0x0, symName: __ZNSt12_Vector_baseISt6vectorIiSaIiEESaIS2_EED2Ev, symObjAddr: 0x20F8, symBinAddr: 0x100006E04, symSize: 0x5C }
  - { offsetInCU: 0x444A5, offset: 0x444A5, size: 0x8, addend: 0x0, symName: __ZNSt6vectorIS_ISt4pairIxxESaIS1_EESaIS3_EED1Ev, symObjAddr: 0x2064, symBinAddr: 0x100006D70, symSize: 0x5C }
  - { offsetInCU: 0x444AD, offset: 0x444AD, size: 0x8, addend: 0x0, symName: __ZNSt12_Vector_baseISt6vectorIiSaIiEESaIS2_EE12_Vector_implC1Ev, symObjAddr: 0x20C0, symBinAddr: 0x100006DCC, symSize: 0x38 }
  - { offsetInCU: 0x44535, offset: 0x44535, size: 0x8, addend: 0x0, symName: __ZNSt12_Vector_baseISt6vectorISt4pairIxxESaIS2_EESaIS4_EED2Ev, symObjAddr: 0x2008, symBinAddr: 0x100006D14, symSize: 0x5C }
  - { offsetInCU: 0x4453D, offset: 0x4453D, size: 0x8, addend: 0x0, symName: __ZNSt6vectorIS_ISt4pairIxxESaIS1_EESaIS3_EED1Ev, symObjAddr: 0x2064, symBinAddr: 0x100006D70, symSize: 0x5C }
  - { offsetInCU: 0x445A6, offset: 0x445A6, size: 0x8, addend: 0x0, symName: __ZNSt12_Vector_baseISt6vectorISt4pairIxxESaIS2_EESaIS4_EE12_Vector_implC1Ev, symObjAddr: 0x1FD0, symBinAddr: 0x100006CDC, symSize: 0x38 }
  - { offsetInCU: 0x445AE, offset: 0x445AE, size: 0x8, addend: 0x0, symName: __ZNSt12_Vector_baseISt6vectorISt4pairIxxESaIS2_EESaIS4_EED2Ev, symObjAddr: 0x2008, symBinAddr: 0x100006D14, symSize: 0x5C }
  - { offsetInCU: 0x445EF, offset: 0x445EF, size: 0x8, addend: 0x0, symName: __ZN2CCIxEC1Ev, symObjAddr: 0x1FA4, symBinAddr: 0x100006CB0, symSize: 0x2C }
  - { offsetInCU: 0x445F7, offset: 0x445F7, size: 0x8, addend: 0x0, symName: __ZNSt12_Vector_baseISt6vectorISt4pairIxxESaIS2_EESaIS4_EE12_Vector_implC1Ev, symObjAddr: 0x1FD0, symBinAddr: 0x100006CDC, symSize: 0x38 }
  - { offsetInCU: 0x44651, offset: 0x44651, size: 0x8, addend: 0x0, symName: __ZNSt6vectorIS_IxSaIxEESaIS1_EED1Ev, symObjAddr: 0x1F48, symBinAddr: 0x100006C54, symSize: 0x5C }
  - { offsetInCU: 0x44659, offset: 0x44659, size: 0x8, addend: 0x0, symName: __ZN2CCIxEC1Ev, symObjAddr: 0x1FA4, symBinAddr: 0x100006CB0, symSize: 0x2C }
  - { offsetInCU: 0x446E1, offset: 0x446E1, size: 0x8, addend: 0x0, symName: __ZNSt12_Vector_baseISt6vectorIxSaIxEESaIS2_EED2Ev, symObjAddr: 0x1EEC, symBinAddr: 0x100006BF8, symSize: 0x5C }
  - { offsetInCU: 0x446E9, offset: 0x446E9, size: 0x8, addend: 0x0, symName: __ZNSt6vectorIS_IxSaIxEESaIS1_EED1Ev, symObjAddr: 0x1F48, symBinAddr: 0x100006C54, symSize: 0x5C }
  - { offsetInCU: 0x44752, offset: 0x44752, size: 0x8, addend: 0x0, symName: __ZNSt12_Vector_baseISt6vectorIxSaIxEESaIS2_EE12_Vector_implC1Ev, symObjAddr: 0x1EB4, symBinAddr: 0x100006BC0, symSize: 0x38 }
  - { offsetInCU: 0x4475A, offset: 0x4475A, size: 0x8, addend: 0x0, symName: __ZNSt12_Vector_baseISt6vectorIxSaIxEESaIS2_EED2Ev, symObjAddr: 0x1EEC, symBinAddr: 0x100006BF8, symSize: 0x5C }
  - { offsetInCU: 0x447BD, offset: 0x447BD, size: 0x8, addend: 0x0, symName: __ZNSt6vectorIxSaIxEED1Ev, symObjAddr: 0x1E58, symBinAddr: 0x100006B64, symSize: 0x5C }
  - { offsetInCU: 0x447C5, offset: 0x447C5, size: 0x8, addend: 0x0, symName: __ZNSt12_Vector_baseISt6vectorIxSaIxEESaIS2_EE12_Vector_implC1Ev, symObjAddr: 0x1EB4, symBinAddr: 0x100006BC0, symSize: 0x38 }
  - { offsetInCU: 0x44846, offset: 0x44846, size: 0x8, addend: 0x0, symName: __ZNSt12_Vector_baseIxSaIxEED2Ev, symObjAddr: 0x1E08, symBinAddr: 0x100006B14, symSize: 0x50 }
  - { offsetInCU: 0x4484E, offset: 0x4484E, size: 0x8, addend: 0x0, symName: __ZNSt6vectorIxSaIxEED1Ev, symObjAddr: 0x1E58, symBinAddr: 0x100006B64, symSize: 0x5C }
  - { offsetInCU: 0x448B7, offset: 0x448B7, size: 0x8, addend: 0x0, symName: __ZNSt12_Vector_baseIxSaIxEE12_Vector_implC1Ev, symObjAddr: 0x1DD0, symBinAddr: 0x100006ADC, symSize: 0x38 }
  - { offsetInCU: 0x448BF, offset: 0x448BF, size: 0x8, addend: 0x0, symName: __ZNSt12_Vector_baseIxSaIxEED2Ev, symObjAddr: 0x1E08, symBinAddr: 0x100006B14, symSize: 0x50 }
  - { offsetInCU: 0x448F5, offset: 0x448F5, size: 0x8, addend: 0x0, symName: __ZN9__gnu_cxxmiIPSt4pairIxxESt6vectorIS2_SaIS2_EEEENS_17__normal_iteratorIT_T0_E15difference_typeERKSA_SD_, symObjAddr: 0x1D90, symBinAddr: 0x100006A9C, symSize: 0x40 }
  - { offsetInCU: 0x448FD, offset: 0x448FD, size: 0x8, addend: 0x0, symName: __ZNSt12_Vector_baseIxSaIxEE12_Vector_implC1Ev, symObjAddr: 0x1DD0, symBinAddr: 0x100006ADC, symSize: 0x38 }
  - { offsetInCU: 0x44942, offset: 0x44942, size: 0x8, addend: 0x0, symName: __ZSt11lower_boundIN9__gnu_cxx17__normal_iteratorIPSt4pairIxxESt6vectorIS3_SaIS3_EEEES3_ET_S9_S9_RKT0_, symObjAddr: 0x1D54, symBinAddr: 0x100006A60, symSize: 0x3C }
  - { offsetInCU: 0x4494A, offset: 0x4494A, size: 0x8, addend: 0x0, symName: __ZN9__gnu_cxxmiIPSt4pairIxxESt6vectorIS2_SaIS2_EEEENS_17__normal_iteratorIT_T0_E15difference_typeERKSA_SD_, symObjAddr: 0x1D90, symBinAddr: 0x100006A9C, symSize: 0x40 }
  - { offsetInCU: 0x449A0, offset: 0x449A0, size: 0x8, addend: 0x0, symName: __ZSt9make_pairIRxxESt4pairINSt25__strip_reference_wrapperINSt5decayIT_E4typeEE6__typeENS2_INS3_IT0_E4typeEE6__typeEEOS4_OS9_, symObjAddr: 0x1D08, symBinAddr: 0x100006A14, symSize: 0x4C }
  - { offsetInCU: 0x449A8, offset: 0x449A8, size: 0x8, addend: 0x0, symName: __ZSt11lower_boundIN9__gnu_cxx17__normal_iteratorIPSt4pairIxxESt6vectorIS3_SaIS3_EEEES3_ET_S9_S9_RKT0_, symObjAddr: 0x1D54, symBinAddr: 0x100006A60, symSize: 0x3C }
  - { offsetInCU: 0x449F1, offset: 0x449F1, size: 0x8, addend: 0x0, symName: __ZN2CCIxE3addEx, symObjAddr: 0x1CDC, symBinAddr: 0x1000069E8, symSize: 0x2C }
  - { offsetInCU: 0x449F9, offset: 0x449F9, size: 0x8, addend: 0x0, symName: __ZSt9make_pairIRxxESt4pairINSt25__strip_reference_wrapperINSt5decayIT_E4typeEE6__typeENS2_INS3_IT0_E4typeEE6__typeEEOS4_OS9_, symObjAddr: 0x1D08, symBinAddr: 0x100006A14, symSize: 0x4C }
  - { offsetInCU: 0x44A2C, offset: 0x44A2C, size: 0x8, addend: 0x0, symName: __ZNSt6vectorIxSaIxEE9push_backERKx, symObjAddr: 0x1C44, symBinAddr: 0x100006950, symSize: 0x98 }
  - { offsetInCU: 0x44A34, offset: 0x44A34, size: 0x8, addend: 0x0, symName: __ZN2CCIxE3addEx, symObjAddr: 0x1CDC, symBinAddr: 0x1000069E8, symSize: 0x2C }
  - { offsetInCU: 0x44A9E, offset: 0x44A9E, size: 0x8, addend: 0x0, symName: __ZNSt6vectorIxSaIxEE6resizeEmRKx, symObjAddr: 0x1B74, symBinAddr: 0x100006880, symSize: 0xD0 }
  - { offsetInCU: 0x44AA6, offset: 0x44AA6, size: 0x8, addend: 0x0, symName: __ZNSt6vectorIxSaIxEE9push_backERKx, symObjAddr: 0x1C44, symBinAddr: 0x100006950, symSize: 0x98 }
  - { offsetInCU: 0x44AEB, offset: 0x44AEB, size: 0x8, addend: 0x0, symName: __ZNSt6vectorIS_IxSaIxEESaIS1_EEixEm, symObjAddr: 0x1B40, symBinAddr: 0x10000684C, symSize: 0x34 }
  - { offsetInCU: 0x44AF3, offset: 0x44AF3, size: 0x8, addend: 0x0, symName: __ZNSt6vectorIxSaIxEE6resizeEmRKx, symObjAddr: 0x1B74, symBinAddr: 0x100006880, symSize: 0xD0 }
  - { offsetInCU: 0x44B27, offset: 0x44B27, size: 0x8, addend: 0x0, symName: __ZNSt6vectorISt4pairIxxESaIS1_EEixEm, symObjAddr: 0x1B18, symBinAddr: 0x100006824, symSize: 0x28 }
  - { offsetInCU: 0x44B2F, offset: 0x44B2F, size: 0x8, addend: 0x0, symName: __ZNSt6vectorIS_IxSaIxEESaIS1_EEixEm, symObjAddr: 0x1B40, symBinAddr: 0x10000684C, symSize: 0x34 }
  - { offsetInCU: 0x44B63, offset: 0x44B63, size: 0x8, addend: 0x0, symName: __ZNSt6vectorIiSaIiEEixEm, symObjAddr: 0x1AF0, symBinAddr: 0x1000067FC, symSize: 0x28 }
  - { offsetInCU: 0x44B6B, offset: 0x44B6B, size: 0x8, addend: 0x0, symName: __ZNSt6vectorISt4pairIxxESaIS1_EEixEm, symObjAddr: 0x1B18, symBinAddr: 0x100006824, symSize: 0x28 }
  - { offsetInCU: 0x44B9F, offset: 0x44B9F, size: 0x8, addend: 0x0, symName: __ZNSt6vectorIiSaIiEE6resizeEm, symObjAddr: 0x1A40, symBinAddr: 0x10000674C, symSize: 0xB0 }
  - { offsetInCU: 0x44BA7, offset: 0x44BA7, size: 0x8, addend: 0x0, symName: __ZNSt6vectorIiSaIiEEixEm, symObjAddr: 0x1AF0, symBinAddr: 0x1000067FC, symSize: 0x28 }
  - { offsetInCU: 0x44BDB, offset: 0x44BDB, size: 0x8, addend: 0x0, symName: __ZNSt6vectorIS_IiSaIiEESaIS1_EEixEm, symObjAddr: 0x1A0C, symBinAddr: 0x100006718, symSize: 0x34 }
  - { offsetInCU: 0x44BE3, offset: 0x44BE3, size: 0x8, addend: 0x0, symName: __ZNSt6vectorIiSaIiEE6resizeEm, symObjAddr: 0x1A40, symBinAddr: 0x10000674C, symSize: 0xB0 }
  - { offsetInCU: 0x44C13, offset: 0x44C13, size: 0x8, addend: 0x0, symName: __ZSt5mergeIN9__gnu_cxx17__normal_iteratorIPSt4pairIxxESt6vectorIS3_SaIS3_EEEES8_S8_ET1_T_SA_T0_SB_S9_, symObjAddr: 0x19C0, symBinAddr: 0x1000066CC, symSize: 0x4C }
  - { offsetInCU: 0x44C1B, offset: 0x44C1B, size: 0x8, addend: 0x0, symName: __ZNSt6vectorIS_IiSaIiEESaIS1_EEixEm, symObjAddr: 0x1A0C, symBinAddr: 0x100006718, symSize: 0x34 }
  - { offsetInCU: 0x44CDC, offset: 0x44CDC, size: 0x8, addend: 0x0, symName: __ZNSt6vectorISt4pairIxxESaIS1_EE6resizeEm, symObjAddr: 0x1910, symBinAddr: 0x10000661C, symSize: 0xB0 }
  - { offsetInCU: 0x44CE4, offset: 0x44CE4, size: 0x8, addend: 0x0, symName: __ZSt5mergeIN9__gnu_cxx17__normal_iteratorIPSt4pairIxxESt6vectorIS3_SaIS3_EEEES8_S8_ET1_T_SA_T0_SB_S9_, symObjAddr: 0x19C0, symBinAddr: 0x1000066CC, symSize: 0x4C }
  - { offsetInCU: 0x44D18, offset: 0x44D18, size: 0x8, addend: 0x0, symName: __ZNKSt6vectorISt4pairIxxESaIS1_EE4sizeEv, symObjAddr: 0x18E8, symBinAddr: 0x1000065F4, symSize: 0x28 }
  - { offsetInCU: 0x44D20, offset: 0x44D20, size: 0x8, addend: 0x0, symName: __ZNSt6vectorISt4pairIxxESaIS1_EE6resizeEm, symObjAddr: 0x1910, symBinAddr: 0x10000661C, symSize: 0xB0 }
  - { offsetInCU: 0x44D3F, offset: 0x44D3F, size: 0x8, addend: 0x0, symName: __ZSt4sortIN9__gnu_cxx17__normal_iteratorIPSt4pairIxxESt6vectorIS3_SaIS3_EEEEEvT_S9_, symObjAddr: 0x18B0, symBinAddr: 0x1000065BC, symSize: 0x38 }
  - { offsetInCU: 0x44D47, offset: 0x44D47, size: 0x8, addend: 0x0, symName: __ZNKSt6vectorISt4pairIxxESaIS1_EE4sizeEv, symObjAddr: 0x18E8, symBinAddr: 0x1000065F4, symSize: 0x28 }
  - { offsetInCU: 0x44D87, offset: 0x44D87, size: 0x8, addend: 0x0, symName: __ZNSt6vectorISt4pairIxxESaIS1_EE3endEv, symObjAddr: 0x1888, symBinAddr: 0x100006594, symSize: 0x28 }
  - { offsetInCU: 0x44D8F, offset: 0x44D8F, size: 0x8, addend: 0x0, symName: __ZSt4sortIN9__gnu_cxx17__normal_iteratorIPSt4pairIxxESt6vectorIS3_SaIS3_EEEEEvT_S9_, symObjAddr: 0x18B0, symBinAddr: 0x1000065BC, symSize: 0x38 }
  - { offsetInCU: 0x44DB2, offset: 0x44DB2, size: 0x8, addend: 0x0, symName: __ZNSt6vectorISt4pairIxxESaIS1_EE5beginEv, symObjAddr: 0x1864, symBinAddr: 0x100006570, symSize: 0x24 }
  - { offsetInCU: 0x44DBA, offset: 0x44DBA, size: 0x8, addend: 0x0, symName: __ZNSt6vectorISt4pairIxxESaIS1_EE3endEv, symObjAddr: 0x1888, symBinAddr: 0x100006594, symSize: 0x28 }
  - { offsetInCU: 0x44DDD, offset: 0x44DDD, size: 0x8, addend: 0x0, symName: __ZNKSt6vectorIS_ISt4pairIxxESaIS1_EESaIS3_EE4sizeEv, symObjAddr: 0x1830, symBinAddr: 0x10000653C, symSize: 0x34 }
  - { offsetInCU: 0x44DE5, offset: 0x44DE5, size: 0x8, addend: 0x0, symName: __ZNSt6vectorISt4pairIxxESaIS1_EE5beginEv, symObjAddr: 0x1864, symBinAddr: 0x100006570, symSize: 0x24 }
  - { offsetInCU: 0x44E08, offset: 0x44E08, size: 0x8, addend: 0x0, symName: __ZNSt6vectorIxSaIxEE5clearEv, symObjAddr: 0x1804, symBinAddr: 0x100006510, symSize: 0x2C }
  - { offsetInCU: 0x44E10, offset: 0x44E10, size: 0x8, addend: 0x0, symName: __ZNKSt6vectorIS_ISt4pairIxxESaIS1_EESaIS3_EE4sizeEv, symObjAddr: 0x1830, symBinAddr: 0x10000653C, symSize: 0x34 }
  - { offsetInCU: 0x44E33, offset: 0x44E33, size: 0x8, addend: 0x0, symName: __ZNSt6vectorISt4pairIxxESaIS1_EE12emplace_backIJRxS5_EEERS1_DpOT_, symObjAddr: 0x1714, symBinAddr: 0x100006420, symSize: 0xF0 }
  - { offsetInCU: 0x44E3B, offset: 0x44E3B, size: 0x8, addend: 0x0, symName: __ZNSt6vectorIxSaIxEE5clearEv, symObjAddr: 0x1804, symBinAddr: 0x100006510, symSize: 0x2C }
  - { offsetInCU: 0x44EC4, offset: 0x44EC4, size: 0x8, addend: 0x0, symName: __ZNSt6vectorIS_ISt4pairIxxESaIS1_EESaIS3_EEixEm, symObjAddr: 0x16E0, symBinAddr: 0x1000063EC, symSize: 0x34 }
  - { offsetInCU: 0x44ECC, offset: 0x44ECC, size: 0x8, addend: 0x0, symName: __ZNSt6vectorISt4pairIxxESaIS1_EE12emplace_backIJRxS5_EEERS1_DpOT_, symObjAddr: 0x1714, symBinAddr: 0x100006420, symSize: 0xF0 }
  - { offsetInCU: 0x44F00, offset: 0x44F00, size: 0x8, addend: 0x0, symName: __ZN2CCIxEclEx, symObjAddr: 0x1648, symBinAddr: 0x100006354, symSize: 0x98 }
  - { offsetInCU: 0x44F08, offset: 0x44F08, size: 0x8, addend: 0x0, symName: __ZNSt6vectorIS_ISt4pairIxxESaIS1_EESaIS3_EEixEm, symObjAddr: 0x16E0, symBinAddr: 0x1000063EC, symSize: 0x34 }
  - { offsetInCU: 0x44F3B, offset: 0x44F3B, size: 0x8, addend: 0x0, symName: __ZNSt6vectorIxSaIxEEixEm, symObjAddr: 0x1620, symBinAddr: 0x10000632C, symSize: 0x28 }
  - { offsetInCU: 0x44F43, offset: 0x44F43, size: 0x8, addend: 0x0, symName: __ZN2CCIxEclEx, symObjAddr: 0x1648, symBinAddr: 0x100006354, symSize: 0x98 }
  - { offsetInCU: 0x44F77, offset: 0x44F77, size: 0x8, addend: 0x0, symName: __ZNKSt6vectorIxSaIxEE4sizeEv, symObjAddr: 0x15F8, symBinAddr: 0x100006304, symSize: 0x28 }
  - { offsetInCU: 0x44F7F, offset: 0x44F7F, size: 0x8, addend: 0x0, symName: __ZNSt6vectorIxSaIxEEixEm, symObjAddr: 0x1620, symBinAddr: 0x10000632C, symSize: 0x28 }
  - { offsetInCU: 0x44FA2, offset: 0x44FA2, size: 0x8, addend: 0x0, symName: __ZNSt6vectorIS_IiSaIiEESaIS1_EE6resizeEm, symObjAddr: 0x153C, symBinAddr: 0x100006248, symSize: 0xBC }
  - { offsetInCU: 0x44FAA, offset: 0x44FAA, size: 0x8, addend: 0x0, symName: __ZNKSt6vectorIxSaIxEE4sizeEv, symObjAddr: 0x15F8, symBinAddr: 0x100006304, symSize: 0x28 }
  - { offsetInCU: 0x44FDE, offset: 0x44FDE, size: 0x8, addend: 0x0, symName: __ZNSt6vectorIS_IxSaIxEESaIS1_EE6resizeEm, symObjAddr: 0x1480, symBinAddr: 0x10000618C, symSize: 0xBC }
  - { offsetInCU: 0x44FE6, offset: 0x44FE6, size: 0x8, addend: 0x0, symName: __ZNSt6vectorIS_IiSaIiEESaIS1_EE6resizeEm, symObjAddr: 0x153C, symBinAddr: 0x100006248, symSize: 0xBC }
  - { offsetInCU: 0x4501A, offset: 0x4501A, size: 0x8, addend: 0x0, symName: __ZNSt6vectorIS_ISt4pairIxxESaIS1_EESaIS3_EE6resizeEm, symObjAddr: 0x13C4, symBinAddr: 0x1000060D0, symSize: 0xBC }
  - { offsetInCU: 0x45022, offset: 0x45022, size: 0x8, addend: 0x0, symName: __ZNSt6vectorIS_IxSaIxEESaIS1_EE6resizeEm, symObjAddr: 0x1480, symBinAddr: 0x10000618C, symSize: 0xBC }
  - { offsetInCU: 0x45056, offset: 0x45056, size: 0x8, addend: 0x0, symName: __ZN2CCIxE4sizeEv, symObjAddr: 0x1380, symBinAddr: 0x10000608C, symSize: 0x44 }
  - { offsetInCU: 0x4505E, offset: 0x4505E, size: 0x8, addend: 0x0, symName: __ZNSt6vectorIS_ISt4pairIxxESaIS1_EESaIS3_EE6resizeEm, symObjAddr: 0x13C4, symBinAddr: 0x1000060D0, symSize: 0xBC }
  - { offsetInCU: 0x45081, offset: 0x45081, size: 0x8, addend: 0x0, symName: __ZN2CCIxE4initEv, symObjAddr: 0x12C0, symBinAddr: 0x100005FCC, symSize: 0xC0 }
  - { offsetInCU: 0x45089, offset: 0x45089, size: 0x8, addend: 0x0, symName: __ZN2CCIxE4sizeEv, symObjAddr: 0x1380, symBinAddr: 0x10000608C, symSize: 0x44 }
  - { offsetInCU: 0x450A8, offset: 0x450A8, size: 0x8, addend: 0x0, symName: __ZSt3maxImERKT_S2_S2_, symObjAddr: 0x1288, symBinAddr: 0x100005F94, symSize: 0x38 }
  - { offsetInCU: 0x450B0, offset: 0x450B0, size: 0x8, addend: 0x0, symName: __ZN2CCIxE4initEv, symObjAddr: 0x12C0, symBinAddr: 0x100005FCC, symSize: 0xC0 }
  - { offsetInCU: 0x450F6, offset: 0x450F6, size: 0x8, addend: 0x0, symName: _main, symObjAddr: 0x10C8, symBinAddr: 0x100005DD4, symSize: 0x1C0 }
  - { offsetInCU: 0x450FE, offset: 0x450FE, size: 0x8, addend: 0x0, symName: __ZSt3maxImERKT_S2_S2_, symObjAddr: 0x1288, symBinAddr: 0x100005F94, symSize: 0x38 }
  - { offsetInCU: 0x45268, offset: 0x45268, size: 0x8, addend: 0x0, symName: __ZN20static2DrectunglesumD1Ev, symObjAddr: 0x1054, symBinAddr: 0x100005D60, symSize: 0x74 }
  - { offsetInCU: 0x45270, offset: 0x45270, size: 0x8, addend: 0x0, symName: _main, symObjAddr: 0x10C8, symBinAddr: 0x100005DD4, symSize: 0x1C0 }
  - { offsetInCU: 0x452AC, offset: 0x452AC, size: 0x8, addend: 0x0, symName: __ZN20static2DrectunglesumC1Ev, symObjAddr: 0xFE0, symBinAddr: 0x100005CEC, symSize: 0x74 }
  - { offsetInCU: 0x452B4, offset: 0x452B4, size: 0x8, addend: 0x0, symName: __ZN20static2DrectunglesumD1Ev, symObjAddr: 0x1054, symBinAddr: 0x100005D60, symSize: 0x74 }
  - { offsetInCU: 0x452F3, offset: 0x452F3, size: 0x8, addend: 0x0, symName: __ZNSt6vectorIS_IiSaIiEESaIS1_EEC1Ev, symObjAddr: 0xFC0, symBinAddr: 0x100005CCC, symSize: 0x20 }
  - { offsetInCU: 0x452FB, offset: 0x452FB, size: 0x8, addend: 0x0, symName: __ZN20static2DrectunglesumC1Ev, symObjAddr: 0xFE0, symBinAddr: 0x100005CEC, symSize: 0x74 }
  - { offsetInCU: 0x45342, offset: 0x45342, size: 0x8, addend: 0x0, symName: __ZNSt12_Vector_baseISt6vectorIiSaIiEESaIS2_EEC2Ev, symObjAddr: 0xFA0, symBinAddr: 0x100005CAC, symSize: 0x20 }
  - { offsetInCU: 0x4534A, offset: 0x4534A, size: 0x8, addend: 0x0, symName: __ZNSt6vectorIS_IiSaIiEESaIS1_EEC1Ev, symObjAddr: 0xFC0, symBinAddr: 0x100005CCC, symSize: 0x20 }
  - { offsetInCU: 0x4539F, offset: 0x4539F, size: 0x8, addend: 0x0, symName: __ZNSt12_Vector_baseISt6vectorIiSaIiEESaIS2_EE12_Vector_implD1Ev, symObjAddr: 0xF80, symBinAddr: 0x100005C8C, symSize: 0x20 }
  - { offsetInCU: 0x453A7, offset: 0x453A7, size: 0x8, addend: 0x0, symName: __ZNSt12_Vector_baseISt6vectorIiSaIiEESaIS2_EEC2Ev, symObjAddr: 0xFA0, symBinAddr: 0x100005CAC, symSize: 0x20 }
  - { offsetInCU: 0x453F3, offset: 0x453F3, size: 0x8, addend: 0x0, symName: __ZNSt6vectorIS_ISt4pairIxxESaIS1_EESaIS3_EEC1Ev, symObjAddr: 0xF60, symBinAddr: 0x100005C6C, symSize: 0x20 }
  - { offsetInCU: 0x453FB, offset: 0x453FB, size: 0x8, addend: 0x0, symName: __ZNSt12_Vector_baseISt6vectorIiSaIiEESaIS2_EE12_Vector_implD1Ev, symObjAddr: 0xF80, symBinAddr: 0x100005C8C, symSize: 0x20 }
  - { offsetInCU: 0x45442, offset: 0x45442, size: 0x8, addend: 0x0, symName: __ZNSt12_Vector_baseISt6vectorISt4pairIxxESaIS2_EESaIS4_EEC2Ev, symObjAddr: 0xF40, symBinAddr: 0x100005C4C, symSize: 0x20 }
  - { offsetInCU: 0x4544A, offset: 0x4544A, size: 0x8, addend: 0x0, symName: __ZNSt6vectorIS_ISt4pairIxxESaIS1_EESaIS3_EEC1Ev, symObjAddr: 0xF60, symBinAddr: 0x100005C6C, symSize: 0x20 }
  - { offsetInCU: 0x4549F, offset: 0x4549F, size: 0x8, addend: 0x0, symName: __ZNSt12_Vector_baseISt6vectorISt4pairIxxESaIS2_EESaIS4_EE12_Vector_implD1Ev, symObjAddr: 0xF20, symBinAddr: 0x100005C2C, symSize: 0x20 }
  - { offsetInCU: 0x454A7, offset: 0x454A7, size: 0x8, addend: 0x0, symName: __ZNSt12_Vector_baseISt6vectorISt4pairIxxESaIS2_EESaIS4_EEC2Ev, symObjAddr: 0xF40, symBinAddr: 0x100005C4C, symSize: 0x20 }
  - { offsetInCU: 0x454D3, offset: 0x454D3, size: 0x8, addend: 0x0, symName: __ZN2CCIxED1Ev, symObjAddr: 0xEFC, symBinAddr: 0x100005C08, symSize: 0x24 }
  - { offsetInCU: 0x454DB, offset: 0x454DB, size: 0x8, addend: 0x0, symName: __ZNSt12_Vector_baseISt6vectorISt4pairIxxESaIS2_EESaIS4_EE12_Vector_implD1Ev, symObjAddr: 0xF20, symBinAddr: 0x100005C2C, symSize: 0x20 }
  - { offsetInCU: 0x4552A, offset: 0x4552A, size: 0x8, addend: 0x0, symName: __ZNSt6vectorIS_IxSaIxEESaIS1_EEC1Ev, symObjAddr: 0xEDC, symBinAddr: 0x100005BE8, symSize: 0x20 }
  - { offsetInCU: 0x45532, offset: 0x45532, size: 0x8, addend: 0x0, symName: __ZN2CCIxED1Ev, symObjAddr: 0xEFC, symBinAddr: 0x100005C08, symSize: 0x24 }
  - { offsetInCU: 0x45579, offset: 0x45579, size: 0x8, addend: 0x0, symName: __ZNSt12_Vector_baseISt6vectorIxSaIxEESaIS2_EEC2Ev, symObjAddr: 0xEBC, symBinAddr: 0x100005BC8, symSize: 0x20 }
  - { offsetInCU: 0x45581, offset: 0x45581, size: 0x8, addend: 0x0, symName: __ZNSt6vectorIS_IxSaIxEESaIS1_EEC1Ev, symObjAddr: 0xEDC, symBinAddr: 0x100005BE8, symSize: 0x20 }
  - { offsetInCU: 0x455D6, offset: 0x455D6, size: 0x8, addend: 0x0, symName: __ZNSt12_Vector_baseISt6vectorIxSaIxEESaIS2_EE12_Vector_implD1Ev, symObjAddr: 0xE9C, symBinAddr: 0x100005BA8, symSize: 0x20 }
  - { offsetInCU: 0x455DE, offset: 0x455DE, size: 0x8, addend: 0x0, symName: __ZNSt12_Vector_baseISt6vectorIxSaIxEESaIS2_EEC2Ev, symObjAddr: 0xEBC, symBinAddr: 0x100005BC8, symSize: 0x20 }
  - { offsetInCU: 0x45613, offset: 0x45613, size: 0x8, addend: 0x0, symName: __ZNSt6vectorIxSaIxEEC1Ev, symObjAddr: 0xE7C, symBinAddr: 0x100005B88, symSize: 0x20 }
  - { offsetInCU: 0x4561B, offset: 0x4561B, size: 0x8, addend: 0x0, symName: __ZNSt12_Vector_baseISt6vectorIxSaIxEESaIS2_EE12_Vector_implD1Ev, symObjAddr: 0xE9C, symBinAddr: 0x100005BA8, symSize: 0x20 }
  - { offsetInCU: 0x4565B, offset: 0x4565B, size: 0x8, addend: 0x0, symName: __ZNSt12_Vector_baseIxSaIxEEC2Ev, symObjAddr: 0xE5C, symBinAddr: 0x100005B68, symSize: 0x20 }
  - { offsetInCU: 0x45663, offset: 0x45663, size: 0x8, addend: 0x0, symName: __ZNSt6vectorIxSaIxEEC1Ev, symObjAddr: 0xE7C, symBinAddr: 0x100005B88, symSize: 0x20 }
  - { offsetInCU: 0x456B8, offset: 0x456B8, size: 0x8, addend: 0x0, symName: __ZNSt12_Vector_baseIxSaIxEE12_Vector_implD1Ev, symObjAddr: 0xE3C, symBinAddr: 0x100005B48, symSize: 0x20 }
  - { offsetInCU: 0x456C0, offset: 0x456C0, size: 0x8, addend: 0x0, symName: __ZNSt12_Vector_baseIxSaIxEEC2Ev, symObjAddr: 0xE5C, symBinAddr: 0x100005B68, symSize: 0x20 }
  - { offsetInCU: 0x456D7, offset: 0x456D7, size: 0x8, addend: 0x0, symName: __ZN20static2Drectunglesum3getExxxx, symObjAddr: 0xC7C, symBinAddr: 0x100005988, symSize: 0x1C0 }
  - { offsetInCU: 0x456DF, offset: 0x456DF, size: 0x8, addend: 0x0, symName: __ZNSt12_Vector_baseIxSaIxEE12_Vector_implD1Ev, symObjAddr: 0xE3C, symBinAddr: 0x100005B48, symSize: 0x20 }
  - { offsetInCU: 0x45747, offset: 0x45747, size: 0x8, addend: 0x0, symName: __ZN20static2Drectunglesum4initEv, symObjAddr: 0xC5C, symBinAddr: 0x100005968, symSize: 0x20 }
  - { offsetInCU: 0x4574F, offset: 0x4574F, size: 0x8, addend: 0x0, symName: __ZN20static2Drectunglesum3getExxxx, symObjAddr: 0xC7C, symBinAddr: 0x100005988, symSize: 0x1C0 }
  - { offsetInCU: 0x45772, offset: 0x45772, size: 0x8, addend: 0x0, symName: __ZN20static2Drectunglesum3addExxx, symObjAddr: 0xBFC, symBinAddr: 0x100005908, symSize: 0x60 }
  - { offsetInCU: 0x4577A, offset: 0x4577A, size: 0x8, addend: 0x0, symName: __ZN20static2Drectunglesum4initEv, symObjAddr: 0xC5C, symBinAddr: 0x100005968, symSize: 0x20 }
  - { offsetInCU: 0x457CD, offset: 0x457CD, size: 0x8, addend: 0x0, symName: __ZN20static2Drectunglesum5queryExxxxixx, symObjAddr: 0x9B8, symBinAddr: 0x1000056C4, symSize: 0x244 }
  - { offsetInCU: 0x457D5, offset: 0x457D5, size: 0x8, addend: 0x0, symName: __ZN20static2Drectunglesum3addExxx, symObjAddr: 0xBFC, symBinAddr: 0x100005908, symSize: 0x60 }
  - { offsetInCU: 0x4588D, offset: 0x4588D, size: 0x8, addend: 0x0, symName: __ZN20static2Drectunglesum6init__Ev, symObjAddr: 0x104, symBinAddr: 0x100004E10, symSize: 0x8B4 }
  - { offsetInCU: 0x45895, offset: 0x45895, size: 0x8, addend: 0x0, symName: __ZN20static2Drectunglesum5queryExxxxixx, symObjAddr: 0x9B8, symBinAddr: 0x1000056C4, symSize: 0x244 }
  - { offsetInCU: 0x45AD2, offset: 0x45AD2, size: 0x8, addend: 0x0, symName: __ZSt3minImERKT_S2_S2_, symObjAddr: 0xCC, symBinAddr: 0x100004DD8, symSize: 0x38 }
  - { offsetInCU: 0x45ADA, offset: 0x45ADA, size: 0x8, addend: 0x0, symName: __ZN20static2Drectunglesum6init__Ev, symObjAddr: 0x104, symBinAddr: 0x100004E10, symSize: 0x8B4 }
  - { offsetInCU: 0x45B14, offset: 0x45B14, size: 0x8, addend: 0x0, symName: __ZSt17__size_to_integerm, symObjAddr: 0xB8, symBinAddr: 0x100004DC4, symSize: 0x14 }
  - { offsetInCU: 0x45B1C, offset: 0x45B1C, size: 0x8, addend: 0x0, symName: __ZSt3minImERKT_S2_S2_, symObjAddr: 0xCC, symBinAddr: 0x100004DD8, symSize: 0x38 }
  - { offsetInCU: 0x45B3F, offset: 0x45B3F, size: 0x8, addend: 0x0, symName: __ZN9__gnu_cxx5__ops20__iter_equal_to_iterEv, symObjAddr: 0xB0, symBinAddr: 0x100004DBC, symSize: 0x8 }
  - { offsetInCU: 0x45B47, offset: 0x45B47, size: 0x8, addend: 0x0, symName: __ZSt17__size_to_integerm, symObjAddr: 0xB8, symBinAddr: 0x100004DC4, symSize: 0x14 }
  - { offsetInCU: 0x45B56, offset: 0x45B56, size: 0x8, addend: 0x0, symName: __ZN9__gnu_cxx5__ops15__val_comp_iterENS0_15_Iter_less_iterE, symObjAddr: 0x98, symBinAddr: 0x100004DA4, symSize: 0x18 }
  - { offsetInCU: 0x45B5E, offset: 0x45B5E, size: 0x8, addend: 0x0, symName: __ZN9__gnu_cxx5__ops20__iter_equal_to_iterEv, symObjAddr: 0xB0, symBinAddr: 0x100004DBC, symSize: 0x8 }
  - { offsetInCU: 0x45B79, offset: 0x45B79, size: 0x8, addend: 0x0, symName: __ZN9__gnu_cxx5__ops15__iter_less_valEv, symObjAddr: 0x90, symBinAddr: 0x100004D9C, symSize: 0x8 }
  - { offsetInCU: 0x45B81, offset: 0x45B81, size: 0x8, addend: 0x0, symName: __ZN9__gnu_cxx5__ops15__val_comp_iterENS0_15_Iter_less_iterE, symObjAddr: 0x98, symBinAddr: 0x100004DA4, symSize: 0x18 }
  - { offsetInCU: 0x45B91, offset: 0x45B91, size: 0x8, addend: 0x0, symName: __ZN9__gnu_cxx5__ops16__iter_less_iterEv, symObjAddr: 0x88, symBinAddr: 0x100004D94, symSize: 0x8 }
  - { offsetInCU: 0x45B99, offset: 0x45B99, size: 0x8, addend: 0x0, symName: __ZN9__gnu_cxx5__ops15__iter_less_valEv, symObjAddr: 0x90, symBinAddr: 0x100004D9C, symSize: 0x8 }
  - { offsetInCU: 0x45BB9, offset: 0x45BB9, size: 0x8, addend: 0x0, symName: __ZnwmPv, symObjAddr: 0x70, symBinAddr: 0x100004D7C, symSize: 0x18 }
  - { offsetInCU: 0x45BC1, offset: 0x45BC1, size: 0x8, addend: 0x0, symName: __ZN9__gnu_cxx5__ops16__iter_less_iterEv, symObjAddr: 0x88, symBinAddr: 0x100004D94, symSize: 0x8 }
  - { offsetInCU: 0x45BE6, offset: 0x45BE6, size: 0x8, addend: 0x0, symName: __ZStltSt15strong_orderingNSt9__cmp_cat8__unspecE, symObjAddr: 0x4C, symBinAddr: 0x100004D58, symSize: 0x24 }
  - { offsetInCU: 0x45BEE, offset: 0x45BEE, size: 0x8, addend: 0x0, symName: __ZnwmPv, symObjAddr: 0x70, symBinAddr: 0x100004D7C, symSize: 0x18 }
  - { offsetInCU: 0x45C19, offset: 0x45C19, size: 0x8, addend: 0x0, symName: __ZSteqSt15strong_orderingNSt9__cmp_cat8__unspecE, symObjAddr: 0x28, symBinAddr: 0x100004D34, symSize: 0x24 }
  - { offsetInCU: 0x45C21, offset: 0x45C21, size: 0x8, addend: 0x0, symName: __ZStltSt15strong_orderingNSt9__cmp_cat8__unspecE, symObjAddr: 0x4C, symBinAddr: 0x100004D58, symSize: 0x24 }
  - { offsetInCU: 0x45C8C, offset: 0x45C8C, size: 0x8, addend: 0x0, symName: __ZNSt9__cmp_cat8__unspecC1EPS0_, symObjAddr: 0x10, symBinAddr: 0x100004D1C, symSize: 0x18 }
  - { offsetInCU: 0x45C94, offset: 0x45C94, size: 0x8, addend: 0x0, symName: __ZSteqSt15strong_orderingNSt9__cmp_cat8__unspecE, symObjAddr: 0x28, symBinAddr: 0x100004D34, symSize: 0x24 }
  - { offsetInCU: 0x45C9C, offset: 0x45C9C, size: 0x8, addend: 0x0, symName: __ZSt21is_constant_evaluatedv, symObjAddr: 0x8, symBinAddr: 0x100004D14, symSize: 0x8 }
  - { offsetInCU: 0x45CA4, offset: 0x45CA4, size: 0x8, addend: 0x0, symName: __ZNSt9__cmp_cat8__unspecC1EPS0_, symObjAddr: 0x10, symBinAddr: 0x100004D1C, symSize: 0x18 }
  - { offsetInCU: 0x45CB4, offset: 0x45CB4, size: 0x8, addend: 0x0, symName: __ZSt23__is_constant_evaluatedv, symObjAddr: 0x0, symBinAddr: 0x100004D0C, symSize: 0x8 }
  - { offsetInCU: 0x45CBC, offset: 0x45CBC, size: 0x8, addend: 0x0, symName: __ZSt21is_constant_evaluatedv, symObjAddr: 0x8, symBinAddr: 0x100004D14, symSize: 0x8 }
...
