---
triple:          'arm64-apple-darwin'
binary-path:     '/Users/library-cp/library-cp/verify/Matrix.test'
relocations:
  - { offsetInCU: 0xCE, offset: 0xCE, size: 0x8, addend: 0x0, symName: __ZSt23__is_constant_evaluatedv, symObjAddr: 0x0, symBinAddr: 0x1000073F8, symSize: 0x8 }
  - { offsetInCU: 0x2F481, offset: 0x2F481, size: 0x8, addend: 0x0, symName: __ZStL8__ioinit, symObjAddr: 0xE05F8, symBinAddr: 0x100010590, symSize: 0x0 }
  - { offsetInCU: 0x30752, offset: 0x30752, size: 0x8, addend: 0x0, symName: __GLOBAL__sub_I_Matrix.test.cpp, symObjAddr: 0x2854, symBinAddr: 0x100009C4C, symSize: 0x14 }
  - { offsetInCU: 0x30776, offset: 0x30776, size: 0x8, addend: 0x0, symName: __Z41__static_initialization_and_destruction_0v, symObjAddr: 0x2818, symBinAddr: 0x100009C10, symSize: 0x3C }
  - { offsetInCU: 0x3077E, offset: 0x3077E, size: 0x8, addend: 0x0, symName: __GLOBAL__sub_I_Matrix.test.cpp, symObjAddr: 0x2854, symBinAddr: 0x100009C4C, symSize: 0x14 }
  - { offsetInCU: 0x30767, offset: 0x30767, size: 0x8, addend: 0x0, symName: __ZNSt20__uninitialized_copyILb0EE13__uninit_copyIN9__gnu_cxx17__normal_iteratorIPK6modintILi998244353EESt6vectorIS5_SaIS5_EEEEPS5_EET0_T_SE_SD_, symObjAddr: 0x27EC, symBinAddr: 0x100009BE4, symSize: 0x2C }
  - { offsetInCU: 0x3076F, offset: 0x3076F, size: 0x8, addend: 0x0, symName: __Z41__static_initialization_and_destruction_0v, symObjAddr: 0x2818, symBinAddr: 0x100009C10, symSize: 0x3C }
  - { offsetInCU: 0x307C6, offset: 0x307C6, size: 0x8, addend: 0x0, symName: __ZNK9__gnu_cxx17__normal_iteratorIPK6modintILi998244353EESt6vectorIS2_SaIS2_EEEdeEv, symObjAddr: 0x27D4, symBinAddr: 0x100009BCC, symSize: 0x18 }
  - { offsetInCU: 0x307CE, offset: 0x307CE, size: 0x8, addend: 0x0, symName: __ZNSt20__uninitialized_copyILb0EE13__uninit_copyIN9__gnu_cxx17__normal_iteratorIPK6modintILi998244353EESt6vectorIS5_SaIS5_EEEEPS5_EET0_T_SE_SD_, symObjAddr: 0x27EC, symBinAddr: 0x100009BE4, symSize: 0x2C }
  - { offsetInCU: 0x307F1, offset: 0x307F1, size: 0x8, addend: 0x0, symName: __ZN9__gnu_cxx17__normal_iteratorIPK6modintILi998244353EESt6vectorIS2_SaIS2_EEEppEv, symObjAddr: 0x27AC, symBinAddr: 0x100009BA4, symSize: 0x28 }
  - { offsetInCU: 0x307F9, offset: 0x307F9, size: 0x8, addend: 0x0, symName: __ZNK9__gnu_cxx17__normal_iteratorIPK6modintILi998244353EESt6vectorIS2_SaIS2_EEEdeEv, symObjAddr: 0x27D4, symBinAddr: 0x100009BCC, symSize: 0x18 }
  - { offsetInCU: 0x30846, offset: 0x30846, size: 0x8, addend: 0x0, symName: __ZSt18uninitialized_copyIN9__gnu_cxx17__normal_iteratorIPK6modintILi998244353EESt6vectorIS3_SaIS3_EEEEPS3_ET0_T_SC_SB_, symObjAddr: 0x2778, symBinAddr: 0x100009B70, symSize: 0x34 }
  - { offsetInCU: 0x3084E, offset: 0x3084E, size: 0x8, addend: 0x0, symName: __ZN9__gnu_cxx17__normal_iteratorIPK6modintILi998244353EESt6vectorIS2_SaIS2_EEEppEv, symObjAddr: 0x27AC, symBinAddr: 0x100009BA4, symSize: 0x28 }
  - { offsetInCU: 0x308C1, offset: 0x308C1, size: 0x8, addend: 0x0, symName: __ZSt16__do_uninit_copyIN9__gnu_cxx17__normal_iteratorIPK6modintILi998244353EESt6vectorIS3_SaIS3_EEEEPS3_ET0_T_SC_SB_, symObjAddr: 0x26EC, symBinAddr: 0x100009AE4, symSize: 0x8C }
  - { offsetInCU: 0x308C9, offset: 0x308C9, size: 0x8, addend: 0x0, symName: __ZSt18uninitialized_copyIN9__gnu_cxx17__normal_iteratorIPK6modintILi998244353EESt6vectorIS3_SaIS3_EEEEPS3_ET0_T_SC_SB_, symObjAddr: 0x2778, symBinAddr: 0x100009B70, symSize: 0x34 }
  - { offsetInCU: 0x30930, offset: 0x30930, size: 0x8, addend: 0x0, symName: __ZNK9__gnu_cxx17__normal_iteratorIPK6modintILi998244353EESt6vectorIS2_SaIS2_EEE4baseEv, symObjAddr: 0x26D8, symBinAddr: 0x100009AD0, symSize: 0x14 }
  - { offsetInCU: 0x30938, offset: 0x30938, size: 0x8, addend: 0x0, symName: __ZSt16__do_uninit_copyIN9__gnu_cxx17__normal_iteratorIPK6modintILi998244353EESt6vectorIS3_SaIS3_EEEEPS3_ET0_T_SC_SB_, symObjAddr: 0x26EC, symBinAddr: 0x100009AE4, symSize: 0x8C }
  - { offsetInCU: 0x3095E, offset: 0x3095E, size: 0x8, addend: 0x0, symName: __ZN9__gnu_cxxeqIPK6modintILi998244353EESt6vectorIS2_SaIS2_EEEEbRKNS_17__normal_iteratorIT_T0_EESD_, symObjAddr: 0x2694, symBinAddr: 0x100009A8C, symSize: 0x44 }
  - { offsetInCU: 0x30966, offset: 0x30966, size: 0x8, addend: 0x0, symName: __ZNK9__gnu_cxx17__normal_iteratorIPK6modintILi998244353EESt6vectorIS2_SaIS2_EEE4baseEv, symObjAddr: 0x26D8, symBinAddr: 0x100009AD0, symSize: 0x14 }
  - { offsetInCU: 0x30A2B, offset: 0x30A2B, size: 0x8, addend: 0x0, symName: __ZN9__gnu_cxx17__normal_iteratorIPK6modintILi998244353EESt6vectorIS2_SaIS2_EEEC1ERKS4_, symObjAddr: 0x266C, symBinAddr: 0x100009A64, symSize: 0x28 }
  - { offsetInCU: 0x30A33, offset: 0x30A33, size: 0x8, addend: 0x0, symName: __ZN9__gnu_cxxeqIPK6modintILi998244353EESt6vectorIS2_SaIS2_EEEEbRKNS_17__normal_iteratorIT_T0_EESD_, symObjAddr: 0x2694, symBinAddr: 0x100009A8C, symSize: 0x44 }
  - { offsetInCU: 0x30A1D, offset: 0x30A1D, size: 0x8, addend: 0x0, symName: __ZNSt15__new_allocatorISt6vectorI6modintILi998244353EESaIS2_EEE8allocateEmPKv, symObjAddr: 0x25DC, symBinAddr: 0x1000099D4, symSize: 0x90 }
  - { offsetInCU: 0x30A25, offset: 0x30A25, size: 0x8, addend: 0x0, symName: __ZN9__gnu_cxx17__normal_iteratorIPK6modintILi998244353EESt6vectorIS2_SaIS2_EEEC1ERKS4_, symObjAddr: 0x266C, symBinAddr: 0x100009A64, symSize: 0x28 }
  - { offsetInCU: 0x30A94, offset: 0x30A94, size: 0x8, addend: 0x0, symName: __ZNSt15__new_allocatorI6modintILi998244353EEE8allocateEmPKv, symObjAddr: 0x2560, symBinAddr: 0x100009958, symSize: 0x7C }
  - { offsetInCU: 0x30A9C, offset: 0x30A9C, size: 0x8, addend: 0x0, symName: __ZNSt15__new_allocatorISt6vectorI6modintILi998244353EESaIS2_EEE8allocateEmPKv, symObjAddr: 0x25DC, symBinAddr: 0x1000099D4, symSize: 0x90 }
  - { offsetInCU: 0x30B07, offset: 0x30B07, size: 0x8, addend: 0x0, symName: __ZSt22__uninitialized_copy_aIN9__gnu_cxx17__normal_iteratorIPK6modintILi998244353EESt6vectorIS3_SaIS3_EEEEPS3_S3_ET0_T_SC_SB_RSaIT1_E, symObjAddr: 0x2504, symBinAddr: 0x1000098FC, symSize: 0x5C }
  - { offsetInCU: 0x30B0F, offset: 0x30B0F, size: 0x8, addend: 0x0, symName: __ZNSt15__new_allocatorI6modintILi998244353EEE8allocateEmPKv, symObjAddr: 0x2560, symBinAddr: 0x100009958, symSize: 0x7C }
  - { offsetInCU: 0x30B7B, offset: 0x30B7B, size: 0x8, addend: 0x0, symName: __ZNKSt6vectorI6modintILi998244353EESaIS1_EE3endEv, symObjAddr: 0x24DC, symBinAddr: 0x1000098D4, symSize: 0x28 }
  - { offsetInCU: 0x30B83, offset: 0x30B83, size: 0x8, addend: 0x0, symName: __ZSt22__uninitialized_copy_aIN9__gnu_cxx17__normal_iteratorIPK6modintILi998244353EESt6vectorIS3_SaIS3_EEEEPS3_S3_ET0_T_SC_SB_RSaIT1_E, symObjAddr: 0x2504, symBinAddr: 0x1000098FC, symSize: 0x5C }
  - { offsetInCU: 0x30BA6, offset: 0x30BA6, size: 0x8, addend: 0x0, symName: __ZNKSt6vectorI6modintILi998244353EESaIS1_EE5beginEv, symObjAddr: 0x24B8, symBinAddr: 0x1000098B0, symSize: 0x24 }
  - { offsetInCU: 0x30BAE, offset: 0x30BAE, size: 0x8, addend: 0x0, symName: __ZNKSt6vectorI6modintILi998244353EESaIS1_EE3endEv, symObjAddr: 0x24DC, symBinAddr: 0x1000098D4, symSize: 0x28 }
  - { offsetInCU: 0x30BE6, offset: 0x30BE6, size: 0x8, addend: 0x0, symName: __ZNKSt12_Vector_baseI6modintILi998244353EESaIS1_EE19_M_get_Tp_allocatorEv, symObjAddr: 0x24A4, symBinAddr: 0x10000989C, symSize: 0x14 }
  - { offsetInCU: 0x30BEE, offset: 0x30BEE, size: 0x8, addend: 0x0, symName: __ZNKSt6vectorI6modintILi998244353EESaIS1_EE5beginEv, symObjAddr: 0x24B8, symBinAddr: 0x1000098B0, symSize: 0x24 }
  - { offsetInCU: 0x30C11, offset: 0x30C11, size: 0x8, addend: 0x0, symName: __ZNKSt6vectorI6modintILi998244353EESaIS1_EE4sizeEv, symObjAddr: 0x247C, symBinAddr: 0x100009874, symSize: 0x28 }
  - { offsetInCU: 0x30C19, offset: 0x30C19, size: 0x8, addend: 0x0, symName: __ZNKSt12_Vector_baseI6modintILi998244353EESaIS1_EE19_M_get_Tp_allocatorEv, symObjAddr: 0x24A4, symBinAddr: 0x10000989C, symSize: 0x14 }
  - { offsetInCU: 0x30C5C, offset: 0x30C5C, size: 0x8, addend: 0x0, symName: __ZSt10destroy_atI6modintILi998244353EEEvPT_, symObjAddr: 0x2468, symBinAddr: 0x100009860, symSize: 0x14 }
  - { offsetInCU: 0x30C64, offset: 0x30C64, size: 0x8, addend: 0x0, symName: __ZNKSt6vectorI6modintILi998244353EESaIS1_EE4sizeEv, symObjAddr: 0x247C, symBinAddr: 0x100009874, symSize: 0x28 }
  - { offsetInCU: 0x30C8E, offset: 0x30C8E, size: 0x8, addend: 0x0, symName: __ZSt12construct_atI6modintILi998244353EEJRKS1_EEDTgsnwcvPvLi0E_T_pispcl7declvalIT0_EEEEPS5_DpOS6_, symObjAddr: 0x2420, symBinAddr: 0x100009818, symSize: 0x48 }
  - { offsetInCU: 0x30C96, offset: 0x30C96, size: 0x8, addend: 0x0, symName: __ZSt10destroy_atI6modintILi998244353EEEvPT_, symObjAddr: 0x2468, symBinAddr: 0x100009860, symSize: 0x14 }
  - { offsetInCU: 0x30CE1, offset: 0x30CE1, size: 0x8, addend: 0x0, symName: __ZSt7forwardIRK6modintILi998244353EEEOT_RNSt16remove_referenceIS4_E4typeE, symObjAddr: 0x240C, symBinAddr: 0x100009804, symSize: 0x14 }
  - { offsetInCU: 0x30CE9, offset: 0x30CE9, size: 0x8, addend: 0x0, symName: __ZSt12construct_atI6modintILi998244353EEJRKS1_EEDTgsnwcvPvLi0E_T_pispcl7declvalIT0_EEEEPS5_DpOS6_, symObjAddr: 0x2420, symBinAddr: 0x100009818, symSize: 0x48 }
  - { offsetInCU: 0x30D17, offset: 0x30D17, size: 0x8, addend: 0x0, symName: __ZNSt15__new_allocatorI6modintILi998244353EEE10deallocateEPS1_m, symObjAddr: 0x23DC, symBinAddr: 0x1000097D4, symSize: 0x30 }
  - { offsetInCU: 0x30D1F, offset: 0x30D1F, size: 0x8, addend: 0x0, symName: __ZSt7forwardIRK6modintILi998244353EEEOT_RNSt16remove_referenceIS4_E4typeE, symObjAddr: 0x240C, symBinAddr: 0x100009804, symSize: 0x14 }
  - { offsetInCU: 0x30DDE, offset: 0x30DDE, size: 0x8, addend: 0x0, symName: __ZNSt6vectorI6modintILi998244353EESaIS1_EEC1ERKS3_, symObjAddr: 0x22E8, symBinAddr: 0x1000096E0, symSize: 0xF4 }
  - { offsetInCU: 0x30DE6, offset: 0x30DE6, size: 0x8, addend: 0x0, symName: __ZNSt15__new_allocatorI6modintILi998244353EEE10deallocateEPS1_m, symObjAddr: 0x23DC, symBinAddr: 0x1000097D4, symSize: 0x30 }
  - { offsetInCU: 0x30E9D, offset: 0x30E9D, size: 0x8, addend: 0x0, symName: __ZSt12construct_atISt6vectorI6modintILi998244353EESaIS2_EEJRKS4_EEDTgsnwcvPvLi0E_T_pispcl7declvalIT0_EEEEPS8_DpOS9_, symObjAddr: 0x2268, symBinAddr: 0x100009660, symSize: 0x80 }
  - { offsetInCU: 0x30EA5, offset: 0x30EA5, size: 0x8, addend: 0x0, symName: __ZNSt6vectorI6modintILi998244353EESaIS1_EEC1ERKS3_, symObjAddr: 0x22E8, symBinAddr: 0x1000096E0, symSize: 0xF4 }
  - { offsetInCU: 0x30EF0, offset: 0x30EF0, size: 0x8, addend: 0x0, symName: __ZSt7forwardIRKSt6vectorI6modintILi998244353EESaIS2_EEEOT_RNSt16remove_referenceIS7_E4typeE, symObjAddr: 0x2254, symBinAddr: 0x10000964C, symSize: 0x14 }
  - { offsetInCU: 0x30EF8, offset: 0x30EF8, size: 0x8, addend: 0x0, symName: __ZSt12construct_atISt6vectorI6modintILi998244353EESaIS2_EEJRKS4_EEDTgsnwcvPvLi0E_T_pispcl7declvalIT0_EEEEPS8_DpOS9_, symObjAddr: 0x2268, symBinAddr: 0x100009660, symSize: 0x80 }
  - { offsetInCU: 0x30F22, offset: 0x30F22, size: 0x8, addend: 0x0, symName: __ZSt10destroy_atISt6vectorI6modintILi998244353EESaIS2_EEEvPT_, symObjAddr: 0x2234, symBinAddr: 0x10000962C, symSize: 0x20 }
  - { offsetInCU: 0x30F2A, offset: 0x30F2A, size: 0x8, addend: 0x0, symName: __ZSt7forwardIRKSt6vectorI6modintILi998244353EESaIS2_EEEOT_RNSt16remove_referenceIS7_E4typeE, symObjAddr: 0x2254, symBinAddr: 0x10000964C, symSize: 0x14 }
  - { offsetInCU: 0x30F58, offset: 0x30F58, size: 0x8, addend: 0x0, symName: __ZNSt15__new_allocatorISt6vectorI6modintILi998244353EESaIS2_EEE10deallocateEPS4_m, symObjAddr: 0x21F8, symBinAddr: 0x1000095F0, symSize: 0x3C }
  - { offsetInCU: 0x30F60, offset: 0x30F60, size: 0x8, addend: 0x0, symName: __ZSt10destroy_atISt6vectorI6modintILi998244353EESaIS2_EEEvPT_, symObjAddr: 0x2234, symBinAddr: 0x10000962C, symSize: 0x20 }
  - { offsetInCU: 0x30F9F, offset: 0x30F9F, size: 0x8, addend: 0x0, symName: __ZNSt22__uninitialized_fill_nILb0EE15__uninit_fill_nIPSt6vectorI6modintILi998244353EESaIS4_EEmS6_EET_S8_T0_RKT1_, symObjAddr: 0x21CC, symBinAddr: 0x1000095C4, symSize: 0x2C }
  - { offsetInCU: 0x30FA7, offset: 0x30FA7, size: 0x8, addend: 0x0, symName: __ZNSt15__new_allocatorISt6vectorI6modintILi998244353EESaIS2_EEE10deallocateEPS4_m, symObjAddr: 0x21F8, symBinAddr: 0x1000095F0, symSize: 0x3C }
  - { offsetInCU: 0x3102A, offset: 0x3102A, size: 0x8, addend: 0x0, symName: __ZSt8_DestroyI6modintILi998244353EEEvPT_, symObjAddr: 0x21AC, symBinAddr: 0x1000095A4, symSize: 0x20 }
  - { offsetInCU: 0x31032, offset: 0x31032, size: 0x8, addend: 0x0, symName: __ZNSt22__uninitialized_fill_nILb0EE15__uninit_fill_nIPSt6vectorI6modintILi998244353EESaIS4_EEmS6_EET_S8_T0_RKT1_, symObjAddr: 0x21CC, symBinAddr: 0x1000095C4, symSize: 0x2C }
  - { offsetInCU: 0x3105C, offset: 0x3105C, size: 0x8, addend: 0x0, symName: __ZNSt22__uninitialized_fill_nILb0EE15__uninit_fill_nIP6modintILi998244353EEmS3_EET_S5_T0_RKT1_, symObjAddr: 0x2180, symBinAddr: 0x100009578, symSize: 0x2C }
  - { offsetInCU: 0x31064, offset: 0x31064, size: 0x8, addend: 0x0, symName: __ZSt8_DestroyI6modintILi998244353EEEvPT_, symObjAddr: 0x21AC, symBinAddr: 0x1000095A4, symSize: 0x20 }
  - { offsetInCU: 0x310C3, offset: 0x310C3, size: 0x8, addend: 0x0, symName: __ZSt10_ConstructI6modintILi998244353EEJRKS1_EEvPT_DpOT0_, symObjAddr: 0x2110, symBinAddr: 0x100009508, symSize: 0x70 }
  - { offsetInCU: 0x310CB, offset: 0x310CB, size: 0x8, addend: 0x0, symName: __ZNSt22__uninitialized_fill_nILb0EE15__uninit_fill_nIP6modintILi998244353EEmS3_EET_S5_T0_RKT1_, symObjAddr: 0x2180, symBinAddr: 0x100009578, symSize: 0x2C }
  - { offsetInCU: 0x3110F, offset: 0x3110F, size: 0x8, addend: 0x0, symName: __ZSt11__addressofI6modintILi998244353EEEPT_RS2_, symObjAddr: 0x20FC, symBinAddr: 0x1000094F4, symSize: 0x14 }
  - { offsetInCU: 0x31117, offset: 0x31117, size: 0x8, addend: 0x0, symName: __ZSt10_ConstructI6modintILi998244353EEJRKS1_EEvPT_DpOT0_, symObjAddr: 0x2110, symBinAddr: 0x100009508, symSize: 0x70 }
  - { offsetInCU: 0x31196, offset: 0x31196, size: 0x8, addend: 0x0, symName: __ZNSt20__uninitialized_copyILb0EE13__uninit_copyIN9__gnu_cxx17__normal_iteratorIPKSt6vectorI6modintILi998244353EESaIS6_EES4_IS8_SaIS8_EEEEPS8_EET0_T_SG_SF_, symObjAddr: 0x20D0, symBinAddr: 0x1000094C8, symSize: 0x2C }
  - { offsetInCU: 0x3119E, offset: 0x3119E, size: 0x8, addend: 0x0, symName: __ZSt11__addressofI6modintILi998244353EEEPT_RS2_, symObjAddr: 0x20FC, symBinAddr: 0x1000094F4, symSize: 0x14 }
  - { offsetInCU: 0x311F1, offset: 0x311F1, size: 0x8, addend: 0x0, symName: __ZSt10_ConstructISt6vectorI6modintILi998244353EESaIS2_EEJRKS4_EEvPT_DpOT0_, symObjAddr: 0x2028, symBinAddr: 0x100009420, symSize: 0xA8 }
  - { offsetInCU: 0x311F9, offset: 0x311F9, size: 0x8, addend: 0x0, symName: __ZNSt20__uninitialized_copyILb0EE13__uninit_copyIN9__gnu_cxx17__normal_iteratorIPKSt6vectorI6modintILi998244353EESaIS6_EES4_IS8_SaIS8_EEEEPS8_EET0_T_SG_SF_, symObjAddr: 0x20D0, symBinAddr: 0x1000094C8, symSize: 0x2C }
  - { offsetInCU: 0x31241, offset: 0x31241, size: 0x8, addend: 0x0, symName: __ZNK9__gnu_cxx17__normal_iteratorIPKSt6vectorI6modintILi998244353EESaIS3_EES1_IS5_SaIS5_EEEdeEv, symObjAddr: 0x2010, symBinAddr: 0x100009408, symSize: 0x18 }
  - { offsetInCU: 0x31249, offset: 0x31249, size: 0x8, addend: 0x0, symName: __ZSt10_ConstructISt6vectorI6modintILi998244353EESaIS2_EEJRKS4_EEvPT_DpOT0_, symObjAddr: 0x2028, symBinAddr: 0x100009420, symSize: 0xA8 }
  - { offsetInCU: 0x3126C, offset: 0x3126C, size: 0x8, addend: 0x0, symName: __ZN9__gnu_cxx17__normal_iteratorIPKSt6vectorI6modintILi998244353EESaIS3_EES1_IS5_SaIS5_EEEppEv, symObjAddr: 0x1FE8, symBinAddr: 0x1000093E0, symSize: 0x28 }
  - { offsetInCU: 0x31274, offset: 0x31274, size: 0x8, addend: 0x0, symName: __ZNK9__gnu_cxx17__normal_iteratorIPKSt6vectorI6modintILi998244353EESaIS3_EES1_IS5_SaIS5_EEEdeEv, symObjAddr: 0x2010, symBinAddr: 0x100009408, symSize: 0x18 }
  - { offsetInCU: 0x31293, offset: 0x31293, size: 0x8, addend: 0x0, symName: __ZSt8_DestroyISt6vectorI6modintILi998244353EESaIS2_EEEvPT_, symObjAddr: 0x1FC8, symBinAddr: 0x1000093C0, symSize: 0x20 }
  - { offsetInCU: 0x3129B, offset: 0x3129B, size: 0x8, addend: 0x0, symName: __ZN9__gnu_cxx17__normal_iteratorIPKSt6vectorI6modintILi998244353EESaIS3_EES1_IS5_SaIS5_EEEppEv, symObjAddr: 0x1FE8, symBinAddr: 0x1000093E0, symSize: 0x28 }
  - { offsetInCU: 0x312C5, offset: 0x312C5, size: 0x8, addend: 0x0, symName: __ZSt11__addressofISt6vectorI6modintILi998244353EESaIS2_EEEPT_RS5_, symObjAddr: 0x1FB4, symBinAddr: 0x1000093AC, symSize: 0x14 }
  - { offsetInCU: 0x312CD, offset: 0x312CD, size: 0x8, addend: 0x0, symName: __ZSt8_DestroyISt6vectorI6modintILi998244353EESaIS2_EEEvPT_, symObjAddr: 0x1FC8, symBinAddr: 0x1000093C0, symSize: 0x20 }
  - { offsetInCU: 0x31328, offset: 0x31328, size: 0x8, addend: 0x0, symName: __ZSt20uninitialized_fill_nIPSt6vectorI6modintILi998244353EESaIS2_EEmS4_ET_S6_T0_RKT1_, symObjAddr: 0x1F84, symBinAddr: 0x10000937C, symSize: 0x30 }
  - { offsetInCU: 0x31330, offset: 0x31330, size: 0x8, addend: 0x0, symName: __ZSt11__addressofISt6vectorI6modintILi998244353EESaIS2_EEEPT_RS5_, symObjAddr: 0x1FB4, symBinAddr: 0x1000093AC, symSize: 0x14 }
  - { offsetInCU: 0x313A0, offset: 0x313A0, size: 0x8, addend: 0x0, symName: __ZSt18__do_uninit_fill_nIPSt6vectorI6modintILi998244353EESaIS2_EEmS4_ET_S6_T0_RKT1_, symObjAddr: 0x1EF4, symBinAddr: 0x1000092EC, symSize: 0x90 }
  - { offsetInCU: 0x313A8, offset: 0x313A8, size: 0x8, addend: 0x0, symName: __ZSt20uninitialized_fill_nIPSt6vectorI6modintILi998244353EESaIS2_EEmS4_ET_S6_T0_RKT1_, symObjAddr: 0x1F84, symBinAddr: 0x10000937C, symSize: 0x30 }
  - { offsetInCU: 0x3141C, offset: 0x3141C, size: 0x8, addend: 0x0, symName: __ZNSt12_Vector_baseISt6vectorI6modintILi998244353EESaIS2_EESaIS4_EE11_M_allocateEm, symObjAddr: 0x1E08, symBinAddr: 0x100009200, symSize: 0xEC }
  - { offsetInCU: 0x31424, offset: 0x31424, size: 0x8, addend: 0x0, symName: __ZSt18__do_uninit_fill_nIPSt6vectorI6modintILi998244353EESaIS2_EEmS4_ET_S6_T0_RKT1_, symObjAddr: 0x1EF4, symBinAddr: 0x1000092EC, symSize: 0x90 }
  - { offsetInCU: 0x314AE, offset: 0x314AE, size: 0x8, addend: 0x0, symName: __ZNSt12_Destroy_auxILb1EE9__destroyIP6modintILi998244353EEEEvT_S5_, symObjAddr: 0x1DF0, symBinAddr: 0x1000091E8, symSize: 0x18 }
  - { offsetInCU: 0x314B6, offset: 0x314B6, size: 0x8, addend: 0x0, symName: __ZNSt12_Vector_baseISt6vectorI6modintILi998244353EESaIS2_EESaIS4_EE11_M_allocateEm, symObjAddr: 0x1E08, symBinAddr: 0x100009200, symSize: 0xEC }
  - { offsetInCU: 0x314E2, offset: 0x314E2, size: 0x8, addend: 0x0, symName: __ZNSt12_Destroy_auxILb0EE9__destroyIP6modintILi998244353EEEEvT_S5_, symObjAddr: 0x1DA4, symBinAddr: 0x10000919C, symSize: 0x4C }
  - { offsetInCU: 0x314EA, offset: 0x314EA, size: 0x8, addend: 0x0, symName: __ZNSt12_Destroy_auxILb1EE9__destroyIP6modintILi998244353EEEEvT_S5_, symObjAddr: 0x1DF0, symBinAddr: 0x1000091E8, symSize: 0x18 }
  - { offsetInCU: 0x31524, offset: 0x31524, size: 0x8, addend: 0x0, symName: __ZSt20uninitialized_fill_nIP6modintILi998244353EEmS1_ET_S3_T0_RKT1_, symObjAddr: 0x1D74, symBinAddr: 0x10000916C, symSize: 0x30 }
  - { offsetInCU: 0x3152C, offset: 0x3152C, size: 0x8, addend: 0x0, symName: __ZNSt12_Destroy_auxILb0EE9__destroyIP6modintILi998244353EEEEvT_S5_, symObjAddr: 0x1DA4, symBinAddr: 0x10000919C, symSize: 0x4C }
  - { offsetInCU: 0x3159C, offset: 0x3159C, size: 0x8, addend: 0x0, symName: __ZSt18__do_uninit_fill_nIP6modintILi998244353EEmS1_ET_S3_T0_RKT1_, symObjAddr: 0x1D14, symBinAddr: 0x10000910C, symSize: 0x60 }
  - { offsetInCU: 0x315A4, offset: 0x315A4, size: 0x8, addend: 0x0, symName: __ZSt20uninitialized_fill_nIP6modintILi998244353EEmS1_ET_S3_T0_RKT1_, symObjAddr: 0x1D74, symBinAddr: 0x10000916C, symSize: 0x30 }
  - { offsetInCU: 0x3164A, offset: 0x3164A, size: 0x8, addend: 0x0, symName: __ZNSt12_Vector_baseI6modintILi998244353EESaIS1_EE11_M_allocateEm, symObjAddr: 0x1C4C, symBinAddr: 0x100009044, symSize: 0xC8 }
  - { offsetInCU: 0x31652, offset: 0x31652, size: 0x8, addend: 0x0, symName: __ZSt18__do_uninit_fill_nIP6modintILi998244353EEmS1_ET_S3_T0_RKT1_, symObjAddr: 0x1D14, symBinAddr: 0x10000910C, symSize: 0x60 }
  - { offsetInCU: 0x31740, offset: 0x31740, size: 0x8, addend: 0x0, symName: __ZNSt12_Vector_baseI6modintILi998244353EESaIS1_EE17_Vector_impl_dataC2Ev, symObjAddr: 0x1C20, symBinAddr: 0x100009018, symSize: 0x2C }
  - { offsetInCU: 0x31748, offset: 0x31748, size: 0x8, addend: 0x0, symName: __ZNSt12_Vector_baseI6modintILi998244353EESaIS1_EE11_M_allocateEm, symObjAddr: 0x1C4C, symBinAddr: 0x100009044, symSize: 0xC8 }
  - { offsetInCU: 0x31740, offset: 0x31740, size: 0x8, addend: 0x0, symName: __ZSt4moveIRSaISt6vectorI6modintILi998244353EESaIS2_EEEEONSt16remove_referenceIT_E4typeEOS8_, symObjAddr: 0x1C0C, symBinAddr: 0x100009004, symSize: 0x14 }
  - { offsetInCU: 0x31748, offset: 0x31748, size: 0x8, addend: 0x0, symName: __ZNSt12_Vector_baseI6modintILi998244353EESaIS1_EE17_Vector_impl_dataC2Ev, symObjAddr: 0x1C20, symBinAddr: 0x100009018, symSize: 0x2C }
  - { offsetInCU: 0x31776, offset: 0x31776, size: 0x8, addend: 0x0, symName: __ZNSt12_Vector_baseISt6vectorI6modintILi998244353EESaIS2_EESaIS4_EE17_Vector_impl_data12_M_copy_dataERKS7_, symObjAddr: 0x1BC4, symBinAddr: 0x100008FBC, symSize: 0x48 }
  - { offsetInCU: 0x3177E, offset: 0x3177E, size: 0x8, addend: 0x0, symName: __ZSt4moveIRSaISt6vectorI6modintILi998244353EESaIS2_EEEEONSt16remove_referenceIT_E4typeEOS8_, symObjAddr: 0x1C0C, symBinAddr: 0x100009004, symSize: 0x14 }
  - { offsetInCU: 0x31822, offset: 0x31822, size: 0x8, addend: 0x0, symName: __ZNSt12_Vector_baseISt6vectorI6modintILi998244353EESaIS2_EESaIS4_EEC2ERKS5_, symObjAddr: 0x1B9C, symBinAddr: 0x100008F94, symSize: 0x28 }
  - { offsetInCU: 0x3182A, offset: 0x3182A, size: 0x8, addend: 0x0, symName: __ZNSt12_Vector_baseISt6vectorI6modintILi998244353EESaIS2_EESaIS4_EE17_Vector_impl_data12_M_copy_dataERKS7_, symObjAddr: 0x1BC4, symBinAddr: 0x100008FBC, symSize: 0x48 }
  - { offsetInCU: 0x31825, offset: 0x31825, size: 0x8, addend: 0x0, symName: __ZN6modintILi998244353EEmLERKS0_, symObjAddr: 0x1B1C, symBinAddr: 0x100008F14, symSize: 0x80 }
  - { offsetInCU: 0x3182D, offset: 0x3182D, size: 0x8, addend: 0x0, symName: __ZNSt12_Vector_baseISt6vectorI6modintILi998244353EESaIS2_EESaIS4_EEC2ERKS5_, symObjAddr: 0x1B9C, symBinAddr: 0x100008F94, symSize: 0x28 }
  - { offsetInCU: 0x3185C, offset: 0x3185C, size: 0x8, addend: 0x0, symName: __ZSt18uninitialized_copyIN9__gnu_cxx17__normal_iteratorIPKSt6vectorI6modintILi998244353EESaIS4_EES2_IS6_SaIS6_EEEEPS6_ET0_T_SE_SD_, symObjAddr: 0x1AE8, symBinAddr: 0x100008EE0, symSize: 0x34 }
  - { offsetInCU: 0x31864, offset: 0x31864, size: 0x8, addend: 0x0, symName: __ZN6modintILi998244353EEmLERKS0_, symObjAddr: 0x1B1C, symBinAddr: 0x100008F14, symSize: 0x80 }
  - { offsetInCU: 0x318D7, offset: 0x318D7, size: 0x8, addend: 0x0, symName: __ZSt16__do_uninit_copyIN9__gnu_cxx17__normal_iteratorIPKSt6vectorI6modintILi998244353EESaIS4_EES2_IS6_SaIS6_EEEEPS6_ET0_T_SE_SD_, symObjAddr: 0x1A34, symBinAddr: 0x100008E2C, symSize: 0xB4 }
  - { offsetInCU: 0x318DF, offset: 0x318DF, size: 0x8, addend: 0x0, symName: __ZSt18uninitialized_copyIN9__gnu_cxx17__normal_iteratorIPKSt6vectorI6modintILi998244353EESaIS4_EES2_IS6_SaIS6_EEEEPS6_ET0_T_SE_SD_, symObjAddr: 0x1AE8, symBinAddr: 0x100008EE0, symSize: 0x34 }
  - { offsetInCU: 0x31946, offset: 0x31946, size: 0x8, addend: 0x0, symName: __ZNK9__gnu_cxx17__normal_iteratorIPKSt6vectorI6modintILi998244353EESaIS3_EES1_IS5_SaIS5_EEE4baseEv, symObjAddr: 0x1A20, symBinAddr: 0x100008E18, symSize: 0x14 }
  - { offsetInCU: 0x3194E, offset: 0x3194E, size: 0x8, addend: 0x0, symName: __ZSt16__do_uninit_copyIN9__gnu_cxx17__normal_iteratorIPKSt6vectorI6modintILi998244353EESaIS4_EES2_IS6_SaIS6_EEEEPS6_ET0_T_SE_SD_, symObjAddr: 0x1A34, symBinAddr: 0x100008E2C, symSize: 0xB4 }
  - { offsetInCU: 0x31974, offset: 0x31974, size: 0x8, addend: 0x0, symName: __ZN9__gnu_cxxeqIPKSt6vectorI6modintILi998244353EESaIS3_EES1_IS5_SaIS5_EEEEbRKNS_17__normal_iteratorIT_T0_EESF_, symObjAddr: 0x19DC, symBinAddr: 0x100008DD4, symSize: 0x44 }
  - { offsetInCU: 0x3197C, offset: 0x3197C, size: 0x8, addend: 0x0, symName: __ZNK9__gnu_cxx17__normal_iteratorIPKSt6vectorI6modintILi998244353EESaIS3_EES1_IS5_SaIS5_EEE4baseEv, symObjAddr: 0x1A20, symBinAddr: 0x100008E18, symSize: 0x14 }
  - { offsetInCU: 0x31A4D, offset: 0x31A4D, size: 0x8, addend: 0x0, symName: __ZN9__gnu_cxx17__normal_iteratorIPKSt6vectorI6modintILi998244353EESaIS3_EES1_IS5_SaIS5_EEEC1ERKS7_, symObjAddr: 0x19B4, symBinAddr: 0x100008DAC, symSize: 0x28 }
  - { offsetInCU: 0x31A55, offset: 0x31A55, size: 0x8, addend: 0x0, symName: __ZN9__gnu_cxxeqIPKSt6vectorI6modintILi998244353EESaIS3_EES1_IS5_SaIS5_EEEEbRKNS_17__normal_iteratorIT_T0_EESF_, symObjAddr: 0x19DC, symBinAddr: 0x100008DD4, symSize: 0x44 }
  - { offsetInCU: 0x31A2F, offset: 0x31A2F, size: 0x8, addend: 0x0, symName: __ZNSt12_Destroy_auxILb0EE9__destroyIPSt6vectorI6modintILi998244353EESaIS4_EEEEvT_S8_, symObjAddr: 0x1968, symBinAddr: 0x100008D60, symSize: 0x4C }
  - { offsetInCU: 0x31A37, offset: 0x31A37, size: 0x8, addend: 0x0, symName: __ZN9__gnu_cxx17__normal_iteratorIPKSt6vectorI6modintILi998244353EESaIS3_EES1_IS5_SaIS5_EEEC1ERKS7_, symObjAddr: 0x19B4, symBinAddr: 0x100008DAC, symSize: 0x28 }
  - { offsetInCU: 0x31AA3, offset: 0x31AA3, size: 0x8, addend: 0x0, symName: __ZSt24__uninitialized_fill_n_aIPSt6vectorI6modintILi998244353EESaIS2_EEmS4_S4_ET_S6_T0_RKT1_RSaIT2_E, symObjAddr: 0x190C, symBinAddr: 0x100008D04, symSize: 0x5C }
  - { offsetInCU: 0x31AAB, offset: 0x31AAB, size: 0x8, addend: 0x0, symName: __ZNSt12_Destroy_auxILb0EE9__destroyIPSt6vectorI6modintILi998244353EESaIS4_EEEEvT_S8_, symObjAddr: 0x1968, symBinAddr: 0x100008D60, symSize: 0x4C }
  - { offsetInCU: 0x31B20, offset: 0x31B20, size: 0x8, addend: 0x0, symName: __ZNSt12_Vector_baseISt6vectorI6modintILi998244353EESaIS2_EESaIS4_EE17_M_create_storageEm, symObjAddr: 0x18A0, symBinAddr: 0x100008C98, symSize: 0x6C }
  - { offsetInCU: 0x31B28, offset: 0x31B28, size: 0x8, addend: 0x0, symName: __ZSt24__uninitialized_fill_n_aIPSt6vectorI6modintILi998244353EESaIS2_EEmS4_S4_ET_S6_T0_RKT1_RSaIT2_E, symObjAddr: 0x190C, symBinAddr: 0x100008D04, symSize: 0x5C }
  - { offsetInCU: 0x31BDA, offset: 0x31BDA, size: 0x8, addend: 0x0, symName: __ZNSt12_Vector_baseISt6vectorI6modintILi998244353EESaIS2_EESaIS4_EE12_Vector_implC1ERKS5_, symObjAddr: 0x1854, symBinAddr: 0x100008C4C, symSize: 0x4C }
  - { offsetInCU: 0x31BE2, offset: 0x31BE2, size: 0x8, addend: 0x0, symName: __ZNSt12_Vector_baseISt6vectorI6modintILi998244353EESaIS2_EESaIS4_EE17_M_create_storageEm, symObjAddr: 0x18A0, symBinAddr: 0x100008C98, symSize: 0x6C }
  - { offsetInCU: 0x31C07, offset: 0x31C07, size: 0x8, addend: 0x0, symName: __ZNSt6vectorIS_I6modintILi998244353EESaIS1_EESaIS3_EE11_S_max_sizeERKS4_, symObjAddr: 0x1810, symBinAddr: 0x100008C08, symSize: 0x44 }
  - { offsetInCU: 0x31C0F, offset: 0x31C0F, size: 0x8, addend: 0x0, symName: __ZNSt12_Vector_baseISt6vectorI6modintILi998244353EESaIS2_EESaIS4_EE12_Vector_implC1ERKS5_, symObjAddr: 0x1854, symBinAddr: 0x100008C4C, symSize: 0x4C }
  - { offsetInCU: 0x31C8D, offset: 0x31C8D, size: 0x8, addend: 0x0, symName: __ZSt8_DestroyIP6modintILi998244353EEEvT_S3_, symObjAddr: 0x17C8, symBinAddr: 0x100008BC0, symSize: 0x48 }
  - { offsetInCU: 0x31C95, offset: 0x31C95, size: 0x8, addend: 0x0, symName: __ZNSt6vectorIS_I6modintILi998244353EESaIS1_EESaIS3_EE11_S_max_sizeERKS4_, symObjAddr: 0x1810, symBinAddr: 0x100008C08, symSize: 0x44 }
  - { offsetInCU: 0x31CCF, offset: 0x31CCF, size: 0x8, addend: 0x0, symName: __ZSt24__uninitialized_fill_n_aIP6modintILi998244353EEmS1_S1_ET_S3_T0_RKT1_RSaIT2_E, symObjAddr: 0x176C, symBinAddr: 0x100008B64, symSize: 0x5C }
  - { offsetInCU: 0x31CD7, offset: 0x31CD7, size: 0x8, addend: 0x0, symName: __ZSt8_DestroyIP6modintILi998244353EEEvT_S3_, symObjAddr: 0x17C8, symBinAddr: 0x100008BC0, symSize: 0x48 }
  - { offsetInCU: 0x31D4C, offset: 0x31D4C, size: 0x8, addend: 0x0, symName: __ZNSt12_Vector_baseI6modintILi998244353EESaIS1_EE13_M_deallocateEPS1_m, symObjAddr: 0x16DC, symBinAddr: 0x100008AD4, symSize: 0x90 }
  - { offsetInCU: 0x31D54, offset: 0x31D54, size: 0x8, addend: 0x0, symName: __ZSt24__uninitialized_fill_n_aIP6modintILi998244353EEmS1_S1_ET_S3_T0_RKT1_RSaIT2_E, symObjAddr: 0x176C, symBinAddr: 0x100008B64, symSize: 0x5C }
  - { offsetInCU: 0x31E06, offset: 0x31E06, size: 0x8, addend: 0x0, symName: __ZNSt12_Vector_baseI6modintILi998244353EESaIS1_EE17_M_create_storageEm, symObjAddr: 0x167C, symBinAddr: 0x100008A74, symSize: 0x60 }
  - { offsetInCU: 0x31E0E, offset: 0x31E0E, size: 0x8, addend: 0x0, symName: __ZNSt12_Vector_baseI6modintILi998244353EESaIS1_EE13_M_deallocateEPS1_m, symObjAddr: 0x16DC, symBinAddr: 0x100008AD4, symSize: 0x90 }
  - { offsetInCU: 0x31EAE, offset: 0x31EAE, size: 0x8, addend: 0x0, symName: __ZNSt12_Vector_baseI6modintILi998244353EESaIS1_EE12_Vector_implC1ERKS2_, symObjAddr: 0x1630, symBinAddr: 0x100008A28, symSize: 0x4C }
  - { offsetInCU: 0x31EB6, offset: 0x31EB6, size: 0x8, addend: 0x0, symName: __ZNSt12_Vector_baseI6modintILi998244353EESaIS1_EE17_M_create_storageEm, symObjAddr: 0x167C, symBinAddr: 0x100008A74, symSize: 0x60 }
  - { offsetInCU: 0x31F11, offset: 0x31F11, size: 0x8, addend: 0x0, symName: __ZNSt6vectorI6modintILi998244353EESaIS1_EE11_S_max_sizeERKS2_, symObjAddr: 0x15F4, symBinAddr: 0x1000089EC, symSize: 0x3C }
  - { offsetInCU: 0x31F19, offset: 0x31F19, size: 0x8, addend: 0x0, symName: __ZNSt12_Vector_baseI6modintILi998244353EESaIS1_EE12_Vector_implC1ERKS2_, symObjAddr: 0x1630, symBinAddr: 0x100008A28, symSize: 0x4C }
  - { offsetInCU: 0x31FC8, offset: 0x31FC8, size: 0x8, addend: 0x0, symName: __ZNSt12_Vector_baseISt6vectorI6modintILi998244353EESaIS2_EESaIS4_EE17_Vector_impl_data12_M_swap_dataERS7_, symObjAddr: 0x15A4, symBinAddr: 0x10000899C, symSize: 0x50 }
  - { offsetInCU: 0x31FD0, offset: 0x31FD0, size: 0x8, addend: 0x0, symName: __ZNSt6vectorI6modintILi998244353EESaIS1_EE11_S_max_sizeERKS2_, symObjAddr: 0x15F4, symBinAddr: 0x1000089EC, symSize: 0x3C }
  - { offsetInCU: 0x32085, offset: 0x32085, size: 0x8, addend: 0x0, symName: __ZNSt12_Vector_baseISt6vectorI6modintILi998244353EESaIS2_EESaIS4_EE17_Vector_impl_dataC2Ev, symObjAddr: 0x1578, symBinAddr: 0x100008970, symSize: 0x2C }
  - { offsetInCU: 0x3208D, offset: 0x3208D, size: 0x8, addend: 0x0, symName: __ZNSt12_Vector_baseISt6vectorI6modintILi998244353EESaIS2_EESaIS4_EE17_Vector_impl_data12_M_swap_dataERS7_, symObjAddr: 0x15A4, symBinAddr: 0x10000899C, symSize: 0x50 }
  - { offsetInCU: 0x320B7, offset: 0x320B7, size: 0x8, addend: 0x0, symName: __ZNSt6vectorIS_I6modintILi998244353EESaIS1_EESaIS3_EEC1ERKS4_, symObjAddr: 0x1550, symBinAddr: 0x100008948, symSize: 0x28 }
  - { offsetInCU: 0x320BF, offset: 0x320BF, size: 0x8, addend: 0x0, symName: __ZNSt12_Vector_baseISt6vectorI6modintILi998244353EESaIS2_EESaIS4_EE17_Vector_impl_dataC2Ev, symObjAddr: 0x1578, symBinAddr: 0x100008970, symSize: 0x2C }
  - { offsetInCU: 0x320AC, offset: 0x320AC, size: 0x8, addend: 0x0, symName: __ZNKSt12_Vector_baseISt6vectorI6modintILi998244353EESaIS2_EESaIS4_EE13get_allocatorEv, symObjAddr: 0x1500, symBinAddr: 0x1000088F8, symSize: 0x50 }
  - { offsetInCU: 0x320B4, offset: 0x320B4, size: 0x8, addend: 0x0, symName: __ZNSt6vectorIS_I6modintILi998244353EESaIS1_EESaIS3_EEC1ERKS4_, symObjAddr: 0x1550, symBinAddr: 0x100008948, symSize: 0x28 }
  - { offsetInCU: 0x321B2, offset: 0x321B2, size: 0x8, addend: 0x0, symName: __ZNSt12_Vector_baseISt6vectorI6modintILi998244353EESaIS2_EESaIS4_EE17_Vector_impl_dataC2EOS7_, symObjAddr: 0x1490, symBinAddr: 0x100008888, symSize: 0x70 }
  - { offsetInCU: 0x321BA, offset: 0x321BA, size: 0x8, addend: 0x0, symName: __ZNKSt12_Vector_baseISt6vectorI6modintILi998244353EESaIS2_EESaIS4_EE13get_allocatorEv, symObjAddr: 0x1500, symBinAddr: 0x1000088F8, symSize: 0x50 }
  - { offsetInCU: 0x321B5, offset: 0x321B5, size: 0x8, addend: 0x0, symName: __ZSt4moveIRNSt12_Vector_baseISt6vectorI6modintILi998244353EESaIS3_EESaIS5_EE12_Vector_implEEONSt16remove_referenceIT_E4typeEOSB_, symObjAddr: 0x147C, symBinAddr: 0x100008874, symSize: 0x14 }
  - { offsetInCU: 0x321BD, offset: 0x321BD, size: 0x8, addend: 0x0, symName: __ZNSt12_Vector_baseISt6vectorI6modintILi998244353EESaIS2_EESaIS4_EE17_Vector_impl_dataC2EOS7_, symObjAddr: 0x1490, symBinAddr: 0x100008888, symSize: 0x70 }
  - { offsetInCU: 0x321EB, offset: 0x321EB, size: 0x8, addend: 0x0, symName: __ZN6modintILi998244353EEpLERKS0_, symObjAddr: 0x140C, symBinAddr: 0x100008804, symSize: 0x70 }
  - { offsetInCU: 0x321F3, offset: 0x321F3, size: 0x8, addend: 0x0, symName: __ZSt4moveIRNSt12_Vector_baseISt6vectorI6modintILi998244353EESaIS3_EESaIS5_EE12_Vector_implEEONSt16remove_referenceIT_E4typeEOSB_, symObjAddr: 0x147C, symBinAddr: 0x100008874, symSize: 0x14 }
  - { offsetInCU: 0x3224A, offset: 0x3224A, size: 0x8, addend: 0x0, symName: __ZmlRK6modintILi998244353EES2_, symObjAddr: 0x13D8, symBinAddr: 0x1000087D0, symSize: 0x34 }
  - { offsetInCU: 0x32252, offset: 0x32252, size: 0x8, addend: 0x0, symName: __ZN6modintILi998244353EEpLERKS0_, symObjAddr: 0x140C, symBinAddr: 0x100008804, symSize: 0x70 }
  - { offsetInCU: 0x3227B, offset: 0x3227B, size: 0x8, addend: 0x0, symName: __ZNK6MatrixI6modintILi998244353EEEixEi, symObjAddr: 0x13B0, symBinAddr: 0x1000087A8, symSize: 0x28 }
  - { offsetInCU: 0x32283, offset: 0x32283, size: 0x8, addend: 0x0, symName: __ZmlRK6modintILi998244353EES2_, symObjAddr: 0x13D8, symBinAddr: 0x1000087D0, symSize: 0x34 }
  - { offsetInCU: 0x322B6, offset: 0x322B6, size: 0x8, addend: 0x0, symName: __ZNKSt6vectorI6modintILi998244353EESaIS1_EEixEm, symObjAddr: 0x1388, symBinAddr: 0x100008780, symSize: 0x28 }
  - { offsetInCU: 0x322BE, offset: 0x322BE, size: 0x8, addend: 0x0, symName: __ZNK6MatrixI6modintILi998244353EEEixEi, symObjAddr: 0x13B0, symBinAddr: 0x1000087A8, symSize: 0x28 }
  - { offsetInCU: 0x322F2, offset: 0x322F2, size: 0x8, addend: 0x0, symName: __ZNKSt6vectorIS_I6modintILi998244353EESaIS1_EESaIS3_EEixEm, symObjAddr: 0x1354, symBinAddr: 0x10000874C, symSize: 0x34 }
  - { offsetInCU: 0x322FA, offset: 0x322FA, size: 0x8, addend: 0x0, symName: __ZNKSt6vectorI6modintILi998244353EESaIS1_EEixEm, symObjAddr: 0x1388, symBinAddr: 0x100008780, symSize: 0x28 }
  - { offsetInCU: 0x3232A, offset: 0x3232A, size: 0x8, addend: 0x0, symName: __ZSt22__uninitialized_copy_aIN9__gnu_cxx17__normal_iteratorIPKSt6vectorI6modintILi998244353EESaIS4_EES2_IS6_SaIS6_EEEEPS6_S6_ET0_T_SE_SD_RSaIT1_E, symObjAddr: 0x12F8, symBinAddr: 0x1000086F0, symSize: 0x5C }
  - { offsetInCU: 0x32332, offset: 0x32332, size: 0x8, addend: 0x0, symName: __ZNKSt6vectorIS_I6modintILi998244353EESaIS1_EESaIS3_EEixEm, symObjAddr: 0x1354, symBinAddr: 0x10000874C, symSize: 0x34 }
  - { offsetInCU: 0x3239E, offset: 0x3239E, size: 0x8, addend: 0x0, symName: __ZNKSt6vectorIS_I6modintILi998244353EESaIS1_EESaIS3_EE3endEv, symObjAddr: 0x12D0, symBinAddr: 0x1000086C8, symSize: 0x28 }
  - { offsetInCU: 0x323A6, offset: 0x323A6, size: 0x8, addend: 0x0, symName: __ZSt22__uninitialized_copy_aIN9__gnu_cxx17__normal_iteratorIPKSt6vectorI6modintILi998244353EESaIS4_EES2_IS6_SaIS6_EEEEPS6_S6_ET0_T_SE_SD_RSaIT1_E, symObjAddr: 0x12F8, symBinAddr: 0x1000086F0, symSize: 0x5C }
  - { offsetInCU: 0x323C9, offset: 0x323C9, size: 0x8, addend: 0x0, symName: __ZNKSt6vectorIS_I6modintILi998244353EESaIS1_EESaIS3_EE5beginEv, symObjAddr: 0x12AC, symBinAddr: 0x1000086A4, symSize: 0x24 }
  - { offsetInCU: 0x323D1, offset: 0x323D1, size: 0x8, addend: 0x0, symName: __ZNKSt6vectorIS_I6modintILi998244353EESaIS1_EESaIS3_EE3endEv, symObjAddr: 0x12D0, symBinAddr: 0x1000086C8, symSize: 0x28 }
  - { offsetInCU: 0x32409, offset: 0x32409, size: 0x8, addend: 0x0, symName: __ZNKSt12_Vector_baseISt6vectorI6modintILi998244353EESaIS2_EESaIS4_EE19_M_get_Tp_allocatorEv, symObjAddr: 0x1298, symBinAddr: 0x100008690, symSize: 0x14 }
  - { offsetInCU: 0x32411, offset: 0x32411, size: 0x8, addend: 0x0, symName: __ZNKSt6vectorIS_I6modintILi998244353EESaIS1_EESaIS3_EE5beginEv, symObjAddr: 0x12AC, symBinAddr: 0x1000086A4, symSize: 0x24 }
  - { offsetInCU: 0x32434, offset: 0x32434, size: 0x8, addend: 0x0, symName: __ZNKSt6vectorIS_I6modintILi998244353EESaIS1_EESaIS3_EE4sizeEv, symObjAddr: 0x1264, symBinAddr: 0x10000865C, symSize: 0x34 }
  - { offsetInCU: 0x3243C, offset: 0x3243C, size: 0x8, addend: 0x0, symName: __ZNKSt12_Vector_baseISt6vectorI6modintILi998244353EESaIS2_EESaIS4_EE19_M_get_Tp_allocatorEv, symObjAddr: 0x1298, symBinAddr: 0x100008690, symSize: 0x14 }
  - { offsetInCU: 0x3245B, offset: 0x3245B, size: 0x8, addend: 0x0, symName: __ZSt8_DestroyIPSt6vectorI6modintILi998244353EESaIS2_EEEvT_S6_, symObjAddr: 0x121C, symBinAddr: 0x100008614, symSize: 0x48 }
  - { offsetInCU: 0x32463, offset: 0x32463, size: 0x8, addend: 0x0, symName: __ZNKSt6vectorIS_I6modintILi998244353EESaIS1_EESaIS3_EE4sizeEv, symObjAddr: 0x1264, symBinAddr: 0x10000865C, symSize: 0x34 }
  - { offsetInCU: 0x324A1, offset: 0x324A1, size: 0x8, addend: 0x0, symName: __ZNSt12_Vector_baseISt6vectorI6modintILi998244353EESaIS2_EESaIS4_EE13_M_deallocateEPS4_m, symObjAddr: 0x118C, symBinAddr: 0x100008584, symSize: 0x90 }
  - { offsetInCU: 0x324A9, offset: 0x324A9, size: 0x8, addend: 0x0, symName: __ZSt8_DestroyIPSt6vectorI6modintILi998244353EESaIS2_EEEvT_S6_, symObjAddr: 0x121C, symBinAddr: 0x100008614, symSize: 0x48 }
  - { offsetInCU: 0x3255B, offset: 0x3255B, size: 0x8, addend: 0x0, symName: __ZNSt6vectorIS_I6modintILi998244353EESaIS1_EESaIS3_EE18_M_fill_initializeEmRKS3_, symObjAddr: 0x1134, symBinAddr: 0x10000852C, symSize: 0x58 }
  - { offsetInCU: 0x32563, offset: 0x32563, size: 0x8, addend: 0x0, symName: __ZNSt12_Vector_baseISt6vectorI6modintILi998244353EESaIS2_EESaIS4_EE13_M_deallocateEPS4_m, symObjAddr: 0x118C, symBinAddr: 0x100008584, symSize: 0x90 }
  - { offsetInCU: 0x32628, offset: 0x32628, size: 0x8, addend: 0x0, symName: __ZNSt12_Vector_baseISt6vectorI6modintILi998244353EESaIS2_EESaIS4_EEC2EmRKS5_, symObjAddr: 0x10E0, symBinAddr: 0x1000084D8, symSize: 0x54 }
  - { offsetInCU: 0x32630, offset: 0x32630, size: 0x8, addend: 0x0, symName: __ZNSt6vectorIS_I6modintILi998244353EESaIS1_EESaIS3_EE18_M_fill_initializeEmRKS3_, symObjAddr: 0x1134, symBinAddr: 0x10000852C, symSize: 0x58 }
  - { offsetInCU: 0x32613, offset: 0x32613, size: 0x8, addend: 0x0, symName: __ZNSt6vectorIS_I6modintILi998244353EESaIS1_EESaIS3_EE17_S_check_init_lenEmRKS4_, symObjAddr: 0x106C, symBinAddr: 0x100008464, symSize: 0x74 }
  - { offsetInCU: 0x3261B, offset: 0x3261B, size: 0x8, addend: 0x0, symName: __ZNSt12_Vector_baseISt6vectorI6modintILi998244353EESaIS2_EESaIS4_EEC2EmRKS5_, symObjAddr: 0x10E0, symBinAddr: 0x1000084D8, symSize: 0x54 }
  - { offsetInCU: 0x3271B, offset: 0x3271B, size: 0x8, addend: 0x0, symName: __ZNSt12_Vector_baseI6modintILi998244353EESaIS1_EE19_M_get_Tp_allocatorEv, symObjAddr: 0x1058, symBinAddr: 0x100008450, symSize: 0x14 }
  - { offsetInCU: 0x32723, offset: 0x32723, size: 0x8, addend: 0x0, symName: __ZNSt6vectorIS_I6modintILi998244353EESaIS1_EESaIS3_EE17_S_check_init_lenEmRKS4_, symObjAddr: 0x106C, symBinAddr: 0x100008464, symSize: 0x74 }
  - { offsetInCU: 0x32746, offset: 0x32746, size: 0x8, addend: 0x0, symName: __ZNSt6vectorI6modintILi998244353EESaIS1_EE18_M_fill_initializeEmRKS1_, symObjAddr: 0x1000, symBinAddr: 0x1000083F8, symSize: 0x58 }
  - { offsetInCU: 0x3274E, offset: 0x3274E, size: 0x8, addend: 0x0, symName: __ZNSt12_Vector_baseI6modintILi998244353EESaIS1_EE19_M_get_Tp_allocatorEv, symObjAddr: 0x1058, symBinAddr: 0x100008450, symSize: 0x14 }
  - { offsetInCU: 0x327EB, offset: 0x327EB, size: 0x8, addend: 0x0, symName: __ZNSt12_Vector_baseI6modintILi998244353EESaIS1_EED2Ev, symObjAddr: 0xFB0, symBinAddr: 0x1000083A8, symSize: 0x50 }
  - { offsetInCU: 0x327F3, offset: 0x327F3, size: 0x8, addend: 0x0, symName: __ZNSt6vectorI6modintILi998244353EESaIS1_EE18_M_fill_initializeEmRKS1_, symObjAddr: 0x1000, symBinAddr: 0x1000083F8, symSize: 0x58 }
  - { offsetInCU: 0x3284D, offset: 0x3284D, size: 0x8, addend: 0x0, symName: __ZNSt12_Vector_baseI6modintILi998244353EESaIS1_EEC2EmRKS2_, symObjAddr: 0xF5C, symBinAddr: 0x100008354, symSize: 0x54 }
  - { offsetInCU: 0x32855, offset: 0x32855, size: 0x8, addend: 0x0, symName: __ZNSt12_Vector_baseI6modintILi998244353EESaIS1_EED2Ev, symObjAddr: 0xFB0, symBinAddr: 0x1000083A8, symSize: 0x50 }
  - { offsetInCU: 0x328B7, offset: 0x328B7, size: 0x8, addend: 0x0, symName: __ZNSt12_Vector_baseI6modintILi998244353EESaIS1_EE12_Vector_implD1Ev, symObjAddr: 0xF3C, symBinAddr: 0x100008334, symSize: 0x20 }
  - { offsetInCU: 0x328BF, offset: 0x328BF, size: 0x8, addend: 0x0, symName: __ZNSt12_Vector_baseI6modintILi998244353EESaIS1_EEC2EmRKS2_, symObjAddr: 0xF5C, symBinAddr: 0x100008354, symSize: 0x54 }
  - { offsetInCU: 0x328BC, offset: 0x328BC, size: 0x8, addend: 0x0, symName: __ZNSt6vectorI6modintILi998244353EESaIS1_EE17_S_check_init_lenEmRKS2_, symObjAddr: 0xEC8, symBinAddr: 0x1000082C0, symSize: 0x74 }
  - { offsetInCU: 0x328C4, offset: 0x328C4, size: 0x8, addend: 0x0, symName: __ZNSt12_Vector_baseI6modintILi998244353EESaIS1_EE12_Vector_implD1Ev, symObjAddr: 0xF3C, symBinAddr: 0x100008334, symSize: 0x20 }
  - { offsetInCU: 0x32996, offset: 0x32996, size: 0x8, addend: 0x0, symName: __ZNSt6vectorIS_I6modintILi998244353EESaIS1_EESaIS3_EE14_M_move_assignEOS5_St17integral_constantIbLb1EE, symObjAddr: 0xE3C, symBinAddr: 0x100008234, symSize: 0x8C }
  - { offsetInCU: 0x3299E, offset: 0x3299E, size: 0x8, addend: 0x0, symName: __ZNSt6vectorI6modintILi998244353EESaIS1_EE17_S_check_init_lenEmRKS2_, symObjAddr: 0xEC8, symBinAddr: 0x1000082C0, symSize: 0x74 }
  - { offsetInCU: 0x32A3E, offset: 0x32A3E, size: 0x8, addend: 0x0, symName: __ZSt4moveIRSt6vectorIS0_I6modintILi998244353EESaIS2_EESaIS4_EEEONSt16remove_referenceIT_E4typeEOS9_, symObjAddr: 0xE28, symBinAddr: 0x100008220, symSize: 0x14 }
  - { offsetInCU: 0x32A46, offset: 0x32A46, size: 0x8, addend: 0x0, symName: __ZNSt6vectorIS_I6modintILi998244353EESaIS1_EESaIS3_EE14_M_move_assignEOS5_St17integral_constantIbLb1EE, symObjAddr: 0xE3C, symBinAddr: 0x100008234, symSize: 0x8C }
  - { offsetInCU: 0x32AF1, offset: 0x32AF1, size: 0x8, addend: 0x0, symName: __ZNSt12_Vector_baseISt6vectorI6modintILi998244353EESaIS2_EESaIS4_EE12_Vector_implC1EOS7_, symObjAddr: 0xDBC, symBinAddr: 0x1000081B4, symSize: 0x6C }
  - { offsetInCU: 0x32AF9, offset: 0x32AF9, size: 0x8, addend: 0x0, symName: __ZSt4moveIRSt6vectorIS0_I6modintILi998244353EESaIS2_EESaIS4_EEEONSt16remove_referenceIT_E4typeEOS9_, symObjAddr: 0xE28, symBinAddr: 0x100008220, symSize: 0x14 }
  - { offsetInCU: 0x32B23, offset: 0x32B23, size: 0x8, addend: 0x0, symName: __ZNK6MatrixI6modintILi998244353EEEmlERKS2_, symObjAddr: 0xC0C, symBinAddr: 0x100008004, symSize: 0x1B0 }
  - { offsetInCU: 0x32B2B, offset: 0x32B2B, size: 0x8, addend: 0x0, symName: __ZNSt12_Vector_baseISt6vectorI6modintILi998244353EESaIS2_EESaIS4_EE12_Vector_implC1EOS7_, symObjAddr: 0xDBC, symBinAddr: 0x1000081B4, symSize: 0x6C }
  - { offsetInCU: 0x32C60, offset: 0x32C60, size: 0x8, addend: 0x0, symName: __ZNSt6vectorIS_I6modintILi998244353EESaIS1_EESaIS3_EEC1ERKS5_, symObjAddr: 0xB18, symBinAddr: 0x100007F10, symSize: 0xF4 }
  - { offsetInCU: 0x32C68, offset: 0x32C68, size: 0x8, addend: 0x0, symName: __ZNK6MatrixI6modintILi998244353EEEmlERKS2_, symObjAddr: 0xC0C, symBinAddr: 0x100008004, symSize: 0x1B0 }
  - { offsetInCU: 0x32D18, offset: 0x32D18, size: 0x8, addend: 0x0, symName: __ZN6MatrixI6modintILi998244353EEE4unitEv, symObjAddr: 0xA54, symBinAddr: 0x100007E4C, symSize: 0xC4 }
  - { offsetInCU: 0x32D20, offset: 0x32D20, size: 0x8, addend: 0x0, symName: __ZNSt6vectorIS_I6modintILi998244353EESaIS1_EESaIS3_EEC1ERKS5_, symObjAddr: 0xB18, symBinAddr: 0x100007F10, symSize: 0xF4 }
  - { offsetInCU: 0x32D93, offset: 0x32D93, size: 0x8, addend: 0x0, symName: __ZNSt6vectorIS_I6modintILi998244353EESaIS1_EESaIS3_EEixEm, symObjAddr: 0xA20, symBinAddr: 0x100007E18, symSize: 0x34 }
  - { offsetInCU: 0x32D9B, offset: 0x32D9B, size: 0x8, addend: 0x0, symName: __ZN6MatrixI6modintILi998244353EEE4unitEv, symObjAddr: 0xA54, symBinAddr: 0x100007E4C, symSize: 0xC4 }
  - { offsetInCU: 0x32E0A, offset: 0x32E0A, size: 0x8, addend: 0x0, symName: __ZNSt12_Vector_baseISt6vectorI6modintILi998244353EESaIS2_EESaIS4_EE19_M_get_Tp_allocatorEv, symObjAddr: 0xA0C, symBinAddr: 0x100007E04, symSize: 0x14 }
  - { offsetInCU: 0x32E12, offset: 0x32E12, size: 0x8, addend: 0x0, symName: __ZNSt6vectorIS_I6modintILi998244353EESaIS1_EESaIS3_EEixEm, symObjAddr: 0xA20, symBinAddr: 0x100007E18, symSize: 0x34 }
  - { offsetInCU: 0x32E9F, offset: 0x32E9F, size: 0x8, addend: 0x0, symName: __ZNSt12_Vector_baseISt6vectorI6modintILi998244353EESaIS2_EESaIS4_EED2Ev, symObjAddr: 0x9B0, symBinAddr: 0x100007DA8, symSize: 0x5C }
  - { offsetInCU: 0x32EA7, offset: 0x32EA7, size: 0x8, addend: 0x0, symName: __ZNSt12_Vector_baseISt6vectorI6modintILi998244353EESaIS2_EESaIS4_EE19_M_get_Tp_allocatorEv, symObjAddr: 0xA0C, symBinAddr: 0x100007E04, symSize: 0x14 }
  - { offsetInCU: 0x32F06, offset: 0x32F06, size: 0x8, addend: 0x0, symName: __ZNSt6vectorIS_I6modintILi998244353EESaIS1_EESaIS3_EEC1EmRKS3_RKS4_, symObjAddr: 0x940, symBinAddr: 0x100007D38, symSize: 0x70 }
  - { offsetInCU: 0x32F0E, offset: 0x32F0E, size: 0x8, addend: 0x0, symName: __ZNSt12_Vector_baseISt6vectorI6modintILi998244353EESaIS2_EESaIS4_EED2Ev, symObjAddr: 0x9B0, symBinAddr: 0x100007DA8, symSize: 0x5C }
  - { offsetInCU: 0x32F91, offset: 0x32F91, size: 0x8, addend: 0x0, symName: __ZNSt6vectorI6modintILi998244353EESaIS1_EED1Ev, symObjAddr: 0x8E4, symBinAddr: 0x100007CDC, symSize: 0x5C }
  - { offsetInCU: 0x32F99, offset: 0x32F99, size: 0x8, addend: 0x0, symName: __ZNSt6vectorIS_I6modintILi998244353EESaIS1_EESaIS3_EEC1EmRKS3_RKS4_, symObjAddr: 0x940, symBinAddr: 0x100007D38, symSize: 0x70 }
  - { offsetInCU: 0x3303C, offset: 0x3303C, size: 0x8, addend: 0x0, symName: __ZNSt6vectorI6modintILi998244353EESaIS1_EEC1EmRKS1_RKS2_, symObjAddr: 0x874, symBinAddr: 0x100007C6C, symSize: 0x70 }
  - { offsetInCU: 0x33044, offset: 0x33044, size: 0x8, addend: 0x0, symName: __ZNSt6vectorI6modintILi998244353EESaIS1_EED1Ev, symObjAddr: 0x8E4, symBinAddr: 0x100007CDC, symSize: 0x5C }
  - { offsetInCU: 0x330A5, offset: 0x330A5, size: 0x8, addend: 0x0, symName: __ZlsRSoRK6modintILi998244353EE, symObjAddr: 0x848, symBinAddr: 0x100007C40, symSize: 0x2C }
  - { offsetInCU: 0x330AD, offset: 0x330AD, size: 0x8, addend: 0x0, symName: __ZNSt6vectorI6modintILi998244353EESaIS1_EEC1EmRKS1_RKS2_, symObjAddr: 0x874, symBinAddr: 0x100007C6C, symSize: 0x70 }
  - { offsetInCU: 0x330CD, offset: 0x330CD, size: 0x8, addend: 0x0, symName: __ZNSt6vectorIS_I6modintILi998244353EESaIS1_EESaIS3_EEaSEOS5_, symObjAddr: 0x804, symBinAddr: 0x100007BFC, symSize: 0x44 }
  - { offsetInCU: 0x330D5, offset: 0x330D5, size: 0x8, addend: 0x0, symName: __ZlsRSoRK6modintILi998244353EE, symObjAddr: 0x848, symBinAddr: 0x100007C40, symSize: 0x2C }
  - { offsetInCU: 0x3311A, offset: 0x3311A, size: 0x8, addend: 0x0, symName: __ZNK6MatrixI6modintILi998244353EEE3powEx, symObjAddr: 0x650, symBinAddr: 0x100007A48, symSize: 0x1B4 }
  - { offsetInCU: 0x33122, offset: 0x33122, size: 0x8, addend: 0x0, symName: __ZNSt6vectorIS_I6modintILi998244353EESaIS1_EESaIS3_EEaSEOS5_, symObjAddr: 0x804, symBinAddr: 0x100007BFC, symSize: 0x44 }
  - { offsetInCU: 0x331DD, offset: 0x331DD, size: 0x8, addend: 0x0, symName: __ZN6MatrixI6modintILi998244353EEEC1EOS2_, symObjAddr: 0x5F8, symBinAddr: 0x1000079F0, symSize: 0x58 }
  - { offsetInCU: 0x331E5, offset: 0x331E5, size: 0x8, addend: 0x0, symName: __ZNK6MatrixI6modintILi998244353EEE3powEx, symObjAddr: 0x650, symBinAddr: 0x100007A48, symSize: 0x1B4 }
  - { offsetInCU: 0x33240, offset: 0x33240, size: 0x8, addend: 0x0, symName: __ZNSt6vectorIS_I6modintILi998244353EESaIS1_EESaIS3_EEC1EOS5_, symObjAddr: 0x5D0, symBinAddr: 0x1000079C8, symSize: 0x28 }
  - { offsetInCU: 0x33248, offset: 0x33248, size: 0x8, addend: 0x0, symName: __ZN6MatrixI6modintILi998244353EEEC1EOS2_, symObjAddr: 0x5F8, symBinAddr: 0x1000079F0, symSize: 0x58 }
  - { offsetInCU: 0x3329D, offset: 0x3329D, size: 0x8, addend: 0x0, symName: __ZNSt12_Vector_baseISt6vectorI6modintILi998244353EESaIS2_EESaIS4_EEC2EOS6_, symObjAddr: 0x5A8, symBinAddr: 0x1000079A0, symSize: 0x28 }
  - { offsetInCU: 0x332A5, offset: 0x332A5, size: 0x8, addend: 0x0, symName: __ZNSt6vectorIS_I6modintILi998244353EESaIS1_EESaIS3_EEC1EOS5_, symObjAddr: 0x5D0, symBinAddr: 0x1000079C8, symSize: 0x28 }
  - { offsetInCU: 0x33300, offset: 0x33300, size: 0x8, addend: 0x0, symName: __ZNSt12_Vector_baseISt6vectorI6modintILi998244353EESaIS2_EESaIS4_EE12_Vector_implD1Ev, symObjAddr: 0x588, symBinAddr: 0x100007980, symSize: 0x20 }
  - { offsetInCU: 0x33308, offset: 0x33308, size: 0x8, addend: 0x0, symName: __ZNSt12_Vector_baseISt6vectorI6modintILi998244353EESaIS2_EESaIS4_EEC2EOS6_, symObjAddr: 0x5A8, symBinAddr: 0x1000079A0, symSize: 0x28 }
  - { offsetInCU: 0x33340, offset: 0x33340, size: 0x8, addend: 0x0, symName: __ZN6MatrixI6modintILi998244353EEEC1ERKS2_, symObjAddr: 0x530, symBinAddr: 0x100007928, symSize: 0x58 }
  - { offsetInCU: 0x33348, offset: 0x33348, size: 0x8, addend: 0x0, symName: __ZNSt12_Vector_baseISt6vectorI6modintILi998244353EESaIS2_EESaIS4_EE12_Vector_implD1Ev, symObjAddr: 0x588, symBinAddr: 0x100007980, symSize: 0x20 }
  - { offsetInCU: 0x3336C, offset: 0x3336C, size: 0x8, addend: 0x0, symName: __ZrsRSiR6modintILi998244353EE, symObjAddr: 0x508, symBinAddr: 0x100007900, symSize: 0x28 }
  - { offsetInCU: 0x33374, offset: 0x33374, size: 0x8, addend: 0x0, symName: __ZN6MatrixI6modintILi998244353EEEC1ERKS2_, symObjAddr: 0x530, symBinAddr: 0x100007928, symSize: 0x58 }
  - { offsetInCU: 0x33395, offset: 0x33395, size: 0x8, addend: 0x0, symName: __ZNSt6vectorI6modintILi998244353EESaIS1_EEixEm, symObjAddr: 0x4E0, symBinAddr: 0x1000078D8, symSize: 0x28 }
  - { offsetInCU: 0x3339D, offset: 0x3339D, size: 0x8, addend: 0x0, symName: __ZrsRSiR6modintILi998244353EE, symObjAddr: 0x508, symBinAddr: 0x100007900, symSize: 0x28 }
  - { offsetInCU: 0x333D1, offset: 0x333D1, size: 0x8, addend: 0x0, symName: __ZN6MatrixI6modintILi998244353EEEixEi, symObjAddr: 0x4B8, symBinAddr: 0x1000078B0, symSize: 0x28 }
  - { offsetInCU: 0x333D9, offset: 0x333D9, size: 0x8, addend: 0x0, symName: __ZNSt6vectorI6modintILi998244353EESaIS1_EEixEm, symObjAddr: 0x4E0, symBinAddr: 0x1000078D8, symSize: 0x28 }
  - { offsetInCU: 0x33468, offset: 0x33468, size: 0x8, addend: 0x0, symName: __ZNSt6vectorIS_I6modintILi998244353EESaIS1_EESaIS3_EED1Ev, symObjAddr: 0x45C, symBinAddr: 0x100007854, symSize: 0x5C }
  - { offsetInCU: 0x33470, offset: 0x33470, size: 0x8, addend: 0x0, symName: __ZN6MatrixI6modintILi998244353EEEixEi, symObjAddr: 0x4B8, symBinAddr: 0x1000078B0, symSize: 0x28 }
  - { offsetInCU: 0x334F6, offset: 0x334F6, size: 0x8, addend: 0x0, symName: __ZN6MatrixI6modintILi998244353EEEC1EiiS1_, symObjAddr: 0x390, symBinAddr: 0x100007788, symSize: 0xCC }
  - { offsetInCU: 0x334FE, offset: 0x334FE, size: 0x8, addend: 0x0, symName: __ZNSt6vectorIS_I6modintILi998244353EESaIS1_EESaIS3_EED1Ev, symObjAddr: 0x45C, symBinAddr: 0x100007854, symSize: 0x5C }
  - { offsetInCU: 0x3363C, offset: 0x3363C, size: 0x8, addend: 0x0, symName: __ZN6modintILi998244353EEC1Ex, symObjAddr: 0x2E0, symBinAddr: 0x1000076D8, symSize: 0xB0 }
  - { offsetInCU: 0x33644, offset: 0x33644, size: 0x8, addend: 0x0, symName: __ZN6MatrixI6modintILi998244353EEEC1EiiS1_, symObjAddr: 0x390, symBinAddr: 0x100007788, symSize: 0xCC }
  - { offsetInCU: 0x33658, offset: 0x33658, size: 0x8, addend: 0x0, symName: _main, symObjAddr: 0xEC, symBinAddr: 0x1000074E4, symSize: 0x1F4 }
  - { offsetInCU: 0x33660, offset: 0x33660, size: 0x8, addend: 0x0, symName: __ZN6modintILi998244353EEC1Ex, symObjAddr: 0x2E0, symBinAddr: 0x1000076D8, symSize: 0xB0 }
  - { offsetInCU: 0x33736, offset: 0x33736, size: 0x8, addend: 0x0, symName: __ZN6MatrixI6modintILi998244353EEEaSEOS2_, symObjAddr: 0x9C, symBinAddr: 0x100007494, symSize: 0x50 }
  - { offsetInCU: 0x3373E, offset: 0x3373E, size: 0x8, addend: 0x0, symName: _main, symObjAddr: 0xEC, symBinAddr: 0x1000074E4, symSize: 0x1F4 }
  - { offsetInCU: 0x337B4, offset: 0x337B4, size: 0x8, addend: 0x0, symName: __ZN6MatrixI6modintILi998244353EEED1Ev, symObjAddr: 0x78, symBinAddr: 0x100007470, symSize: 0x24 }
  - { offsetInCU: 0x337BC, offset: 0x337BC, size: 0x8, addend: 0x0, symName: __ZN6MatrixI6modintILi998244353EEEaSEOS2_, symObjAddr: 0x9C, symBinAddr: 0x100007494, symSize: 0x50 }
  - { offsetInCU: 0x337B4, offset: 0x337B4, size: 0x8, addend: 0x0, symName: __ZSt3minImERKT_S2_S2_, symObjAddr: 0x40, symBinAddr: 0x100007438, symSize: 0x38 }
  - { offsetInCU: 0x337BC, offset: 0x337BC, size: 0x8, addend: 0x0, symName: __ZN6MatrixI6modintILi998244353EEED1Ev, symObjAddr: 0x78, symBinAddr: 0x100007470, symSize: 0x24 }
  - { offsetInCU: 0x33804, offset: 0x33804, size: 0x8, addend: 0x0, symName: __ZdlPvS_, symObjAddr: 0x28, symBinAddr: 0x100007420, symSize: 0x18 }
  - { offsetInCU: 0x3380C, offset: 0x3380C, size: 0x8, addend: 0x0, symName: __ZSt3minImERKT_S2_S2_, symObjAddr: 0x40, symBinAddr: 0x100007438, symSize: 0x38 }
  - { offsetInCU: 0x3383A, offset: 0x3383A, size: 0x8, addend: 0x0, symName: __ZnwmPv, symObjAddr: 0x10, symBinAddr: 0x100007408, symSize: 0x18 }
  - { offsetInCU: 0x33842, offset: 0x33842, size: 0x8, addend: 0x0, symName: __ZdlPvS_, symObjAddr: 0x28, symBinAddr: 0x100007420, symSize: 0x18 }
  - { offsetInCU: 0x33868, offset: 0x33868, size: 0x8, addend: 0x0, symName: __ZSt21is_constant_evaluatedv, symObjAddr: 0x8, symBinAddr: 0x100007400, symSize: 0x8 }
  - { offsetInCU: 0x33870, offset: 0x33870, size: 0x8, addend: 0x0, symName: __ZnwmPv, symObjAddr: 0x10, symBinAddr: 0x100007408, symSize: 0x18 }
  - { offsetInCU: 0x33880, offset: 0x33880, size: 0x8, addend: 0x0, symName: __ZSt23__is_constant_evaluatedv, symObjAddr: 0x0, symBinAddr: 0x1000073F8, symSize: 0x8 }
  - { offsetInCU: 0x33888, offset: 0x33888, size: 0x8, addend: 0x0, symName: __ZSt21is_constant_evaluatedv, symObjAddr: 0x8, symBinAddr: 0x100007400, symSize: 0x8 }
...
